
DOUYU：     文件格式 elf64-x86-64


Disassembly of section .init:

0000000000404f98 <_init>:
  404f98:	48 83 ec 08          	sub    $0x8,%rsp
  404f9c:	48 8b 05 55 70 20 00 	mov    0x207055(%rip),%rax        # 60bff8 <_DYNAMIC+0x200>
  404fa3:	48 85 c0             	test   %rax,%rax
  404fa6:	74 05                	je     404fad <_init+0x15>
  404fa8:	e8 e3 03 00 00       	callq  405390 <inet_addr@plt+0x10>
  404fad:	48 83 c4 08          	add    $0x8,%rsp
  404fb1:	c3                   	retq   

Disassembly of section .plt:

0000000000404fc0 <_ZSt20__throw_length_errorPKc@plt-0x10>:
  404fc0:	ff 35 42 70 20 00    	pushq  0x207042(%rip)        # 60c008 <_GLOBAL_OFFSET_TABLE_+0x8>
  404fc6:	ff 25 44 70 20 00    	jmpq   *0x207044(%rip)        # 60c010 <_GLOBAL_OFFSET_TABLE_+0x10>
  404fcc:	0f 1f 40 00          	nopl   0x0(%rax)

0000000000404fd0 <_ZSt20__throw_length_errorPKc@plt>:
  404fd0:	ff 25 42 70 20 00    	jmpq   *0x207042(%rip)        # 60c018 <_GLOBAL_OFFSET_TABLE_+0x18>
  404fd6:	68 00 00 00 00       	pushq  $0x0
  404fdb:	e9 e0 ff ff ff       	jmpq   404fc0 <_init+0x28>

0000000000404fe0 <printf@plt>:
  404fe0:	ff 25 3a 70 20 00    	jmpq   *0x20703a(%rip)        # 60c020 <_GLOBAL_OFFSET_TABLE_+0x20>
  404fe6:	68 01 00 00 00       	pushq  $0x1
  404feb:	e9 d0 ff ff ff       	jmpq   404fc0 <_init+0x28>

0000000000404ff0 <memset@plt>:
  404ff0:	ff 25 32 70 20 00    	jmpq   *0x207032(%rip)        # 60c028 <_GLOBAL_OFFSET_TABLE_+0x28>
  404ff6:	68 02 00 00 00       	pushq  $0x2
  404ffb:	e9 c0 ff ff ff       	jmpq   404fc0 <_init+0x28>

0000000000405000 <snprintf@plt>:
  405000:	ff 25 2a 70 20 00    	jmpq   *0x20702a(%rip)        # 60c030 <_GLOBAL_OFFSET_TABLE_+0x30>
  405006:	68 03 00 00 00       	pushq  $0x3
  40500b:	e9 b0 ff ff ff       	jmpq   404fc0 <_init+0x28>

0000000000405010 <gethostbyname@plt>:
  405010:	ff 25 22 70 20 00    	jmpq   *0x207022(%rip)        # 60c038 <_GLOBAL_OFFSET_TABLE_+0x38>
  405016:	68 04 00 00 00       	pushq  $0x4
  40501b:	e9 a0 ff ff ff       	jmpq   404fc0 <_init+0x28>

0000000000405020 <puts@plt>:
  405020:	ff 25 1a 70 20 00    	jmpq   *0x20701a(%rip)        # 60c040 <_GLOBAL_OFFSET_TABLE_+0x40>
  405026:	68 05 00 00 00       	pushq  $0x5
  40502b:	e9 90 ff ff ff       	jmpq   404fc0 <_init+0x28>

0000000000405030 <_ZdlPv@plt>:
  405030:	ff 25 12 70 20 00    	jmpq   *0x207012(%rip)        # 60c048 <_GLOBAL_OFFSET_TABLE_+0x48>
  405036:	68 06 00 00 00       	pushq  $0x6
  40503b:	e9 80 ff ff ff       	jmpq   404fc0 <_init+0x28>

0000000000405040 <htons@plt>:
  405040:	ff 25 0a 70 20 00    	jmpq   *0x20700a(%rip)        # 60c050 <_GLOBAL_OFFSET_TABLE_+0x50>
  405046:	68 07 00 00 00       	pushq  $0x7
  40504b:	e9 70 ff ff ff       	jmpq   404fc0 <_init+0x28>

0000000000405050 <select@plt>:
  405050:	ff 25 02 70 20 00    	jmpq   *0x207002(%rip)        # 60c058 <_GLOBAL_OFFSET_TABLE_+0x58>
  405056:	68 08 00 00 00       	pushq  $0x8
  40505b:	e9 60 ff ff ff       	jmpq   404fc0 <_init+0x28>

0000000000405060 <gettimeofday@plt>:
  405060:	ff 25 fa 6f 20 00    	jmpq   *0x206ffa(%rip)        # 60c060 <_GLOBAL_OFFSET_TABLE_+0x60>
  405066:	68 09 00 00 00       	pushq  $0x9
  40506b:	e9 50 ff ff ff       	jmpq   404fc0 <_init+0x28>

0000000000405070 <__cxa_rethrow@plt>:
  405070:	ff 25 f2 6f 20 00    	jmpq   *0x206ff2(%rip)        # 60c068 <_GLOBAL_OFFSET_TABLE_+0x68>
  405076:	68 0a 00 00 00       	pushq  $0xa
  40507b:	e9 40 ff ff ff       	jmpq   404fc0 <_init+0x28>

0000000000405080 <_ZNKSt7__cxx1112basic_stringIcSt11char_traitsIcESaIcEE6lengthEv@plt>:
  405080:	ff 25 ea 6f 20 00    	jmpq   *0x206fea(%rip)        # 60c070 <_GLOBAL_OFFSET_TABLE_+0x70>
  405086:	68 0b 00 00 00       	pushq  $0xb
  40508b:	e9 30 ff ff ff       	jmpq   404fc0 <_init+0x28>

0000000000405090 <_ZNSt8ios_base4InitC1Ev@plt>:
  405090:	ff 25 e2 6f 20 00    	jmpq   *0x206fe2(%rip)        # 60c078 <_GLOBAL_OFFSET_TABLE_+0x78>
  405096:	68 0c 00 00 00       	pushq  $0xc
  40509b:	e9 20 ff ff ff       	jmpq   404fc0 <_init+0x28>

00000000004050a0 <_ZNSt7__cxx1112basic_stringIcSt11char_traitsIcESaIcEE6appendEPKcm@plt>:
  4050a0:	ff 25 da 6f 20 00    	jmpq   *0x206fda(%rip)        # 60c080 <_GLOBAL_OFFSET_TABLE_+0x80>
  4050a6:	68 0d 00 00 00       	pushq  $0xd
  4050ab:	e9 10 ff ff ff       	jmpq   404fc0 <_init+0x28>

00000000004050b0 <read@plt>:
  4050b0:	ff 25 d2 6f 20 00    	jmpq   *0x206fd2(%rip)        # 60c088 <_GLOBAL_OFFSET_TABLE_+0x88>
  4050b6:	68 0e 00 00 00       	pushq  $0xe
  4050bb:	e9 00 ff ff ff       	jmpq   404fc0 <_init+0x28>

00000000004050c0 <malloc@plt>:
  4050c0:	ff 25 ca 6f 20 00    	jmpq   *0x206fca(%rip)        # 60c090 <_GLOBAL_OFFSET_TABLE_+0x90>
  4050c6:	68 0f 00 00 00       	pushq  $0xf
  4050cb:	e9 f0 fe ff ff       	jmpq   404fc0 <_init+0x28>

00000000004050d0 <__libc_start_main@plt>:
  4050d0:	ff 25 c2 6f 20 00    	jmpq   *0x206fc2(%rip)        # 60c098 <_GLOBAL_OFFSET_TABLE_+0x98>
  4050d6:	68 10 00 00 00       	pushq  $0x10
  4050db:	e9 e0 fe ff ff       	jmpq   404fc0 <_init+0x28>

00000000004050e0 <__cxa_atexit@plt>:
  4050e0:	ff 25 ba 6f 20 00    	jmpq   *0x206fba(%rip)        # 60c0a0 <_GLOBAL_OFFSET_TABLE_+0xa0>
  4050e6:	68 11 00 00 00       	pushq  $0x11
  4050eb:	e9 d0 fe ff ff       	jmpq   404fc0 <_init+0x28>

00000000004050f0 <_ZNSt8ios_base4InitD1Ev@plt>:
  4050f0:	ff 25 b2 6f 20 00    	jmpq   *0x206fb2(%rip)        # 60c0a8 <_GLOBAL_OFFSET_TABLE_+0xa8>
  4050f6:	68 12 00 00 00       	pushq  $0x12
  4050fb:	e9 c0 fe ff ff       	jmpq   404fc0 <_init+0x28>

0000000000405100 <_ZStlsISt11char_traitsIcEERSt13basic_ostreamIcT_ES5_PKc@plt>:
  405100:	ff 25 aa 6f 20 00    	jmpq   *0x206faa(%rip)        # 60c0b0 <_GLOBAL_OFFSET_TABLE_+0xb0>
  405106:	68 13 00 00 00       	pushq  $0x13
  40510b:	e9 b0 fe ff ff       	jmpq   404fc0 <_init+0x28>

0000000000405110 <_ZNSt7__cxx1112basic_stringIcSt11char_traitsIcESaIcEE5clearEv@plt>:
  405110:	ff 25 a2 6f 20 00    	jmpq   *0x206fa2(%rip)        # 60c0b8 <_GLOBAL_OFFSET_TABLE_+0xb8>
  405116:	68 14 00 00 00       	pushq  $0x14
  40511b:	e9 a0 fe ff ff       	jmpq   404fc0 <_init+0x28>

0000000000405120 <_ZNSt7__cxx1112basic_stringIcSt11char_traitsIcESaIcEEC1Ev@plt>:
  405120:	ff 25 9a 6f 20 00    	jmpq   *0x206f9a(%rip)        # 60c0c0 <_GLOBAL_OFFSET_TABLE_+0xc0>
  405126:	68 15 00 00 00       	pushq  $0x15
  40512b:	e9 90 fe ff ff       	jmpq   404fc0 <_init+0x28>

0000000000405130 <free@plt>:
  405130:	ff 25 92 6f 20 00    	jmpq   *0x206f92(%rip)        # 60c0c8 <_GLOBAL_OFFSET_TABLE_+0xc8>
  405136:	68 16 00 00 00       	pushq  $0x16
  40513b:	e9 80 fe ff ff       	jmpq   404fc0 <_init+0x28>

0000000000405140 <pthread_create@plt>:
  405140:	ff 25 8a 6f 20 00    	jmpq   *0x206f8a(%rip)        # 60c0d0 <_GLOBAL_OFFSET_TABLE_+0xd0>
  405146:	68 17 00 00 00       	pushq  $0x17
  40514b:	e9 70 fe ff ff       	jmpq   404fc0 <_init+0x28>

0000000000405150 <_ZNSt7__cxx1112basic_stringIcSt11char_traitsIcESaIcEED1Ev@plt>:
  405150:	ff 25 82 6f 20 00    	jmpq   *0x206f82(%rip)        # 60c0d8 <_GLOBAL_OFFSET_TABLE_+0xd8>
  405156:	68 18 00 00 00       	pushq  $0x18
  40515b:	e9 60 fe ff ff       	jmpq   404fc0 <_init+0x28>

0000000000405160 <sleep@plt>:
  405160:	ff 25 7a 6f 20 00    	jmpq   *0x206f7a(%rip)        # 60c0e0 <_GLOBAL_OFFSET_TABLE_+0xe0>
  405166:	68 19 00 00 00       	pushq  $0x19
  40516b:	e9 50 fe ff ff       	jmpq   404fc0 <_init+0x28>

0000000000405170 <getsockopt@plt>:
  405170:	ff 25 72 6f 20 00    	jmpq   *0x206f72(%rip)        # 60c0e8 <_GLOBAL_OFFSET_TABLE_+0xe8>
  405176:	68 1a 00 00 00       	pushq  $0x1a
  40517b:	e9 40 fe ff ff       	jmpq   404fc0 <_init+0x28>

0000000000405180 <atoi@plt>:
  405180:	ff 25 6a 6f 20 00    	jmpq   *0x206f6a(%rip)        # 60c0f0 <_GLOBAL_OFFSET_TABLE_+0xf0>
  405186:	68 1b 00 00 00       	pushq  $0x1b
  40518b:	e9 30 fe ff ff       	jmpq   404fc0 <_init+0x28>

0000000000405190 <_ZNKSt7__cxx1112basic_stringIcSt11char_traitsIcESaIcEE4dataEv@plt>:
  405190:	ff 25 62 6f 20 00    	jmpq   *0x206f62(%rip)        # 60c0f8 <_GLOBAL_OFFSET_TABLE_+0xf8>
  405196:	68 1c 00 00 00       	pushq  $0x1c
  40519b:	e9 20 fe ff ff       	jmpq   404fc0 <_init+0x28>

00000000004051a0 <_ZNSt14basic_ofstreamIcSt11char_traitsIcEED1Ev@plt>:
  4051a0:	ff 25 5a 6f 20 00    	jmpq   *0x206f5a(%rip)        # 60c100 <_GLOBAL_OFFSET_TABLE_+0x100>
  4051a6:	68 1d 00 00 00       	pushq  $0x1d
  4051ab:	e9 10 fe ff ff       	jmpq   404fc0 <_init+0x28>

00000000004051b0 <connect@plt>:
  4051b0:	ff 25 52 6f 20 00    	jmpq   *0x206f52(%rip)        # 60c108 <_GLOBAL_OFFSET_TABLE_+0x108>
  4051b6:	68 1e 00 00 00       	pushq  $0x1e
  4051bb:	e9 00 fe ff ff       	jmpq   404fc0 <_init+0x28>

00000000004051c0 <_ZNSt7__cxx1112basic_stringIcSt11char_traitsIcESaIcEE6appendEmc@plt>:
  4051c0:	ff 25 4a 6f 20 00    	jmpq   *0x206f4a(%rip)        # 60c110 <_GLOBAL_OFFSET_TABLE_+0x110>
  4051c6:	68 1f 00 00 00       	pushq  $0x1f
  4051cb:	e9 f0 fd ff ff       	jmpq   404fc0 <_init+0x28>

00000000004051d0 <_ZNKSt9basic_iosIcSt11char_traitsIcEE4goodEv@plt>:
  4051d0:	ff 25 42 6f 20 00    	jmpq   *0x206f42(%rip)        # 60c118 <_GLOBAL_OFFSET_TABLE_+0x118>
  4051d6:	68 20 00 00 00       	pushq  $0x20
  4051db:	e9 e0 fd ff ff       	jmpq   404fc0 <_init+0x28>

00000000004051e0 <socket@plt>:
  4051e0:	ff 25 3a 6f 20 00    	jmpq   *0x206f3a(%rip)        # 60c120 <_GLOBAL_OFFSET_TABLE_+0x120>
  4051e6:	68 21 00 00 00       	pushq  $0x21
  4051eb:	e9 d0 fd ff ff       	jmpq   404fc0 <_init+0x28>

00000000004051f0 <__errno_location@plt>:
  4051f0:	ff 25 32 6f 20 00    	jmpq   *0x206f32(%rip)        # 60c128 <_GLOBAL_OFFSET_TABLE_+0x128>
  4051f6:	68 22 00 00 00       	pushq  $0x22
  4051fb:	e9 c0 fd ff ff       	jmpq   404fc0 <_init+0x28>

0000000000405200 <__stack_chk_fail@plt>:
  405200:	ff 25 2a 6f 20 00    	jmpq   *0x206f2a(%rip)        # 60c130 <_GLOBAL_OFFSET_TABLE_+0x130>
  405206:	68 23 00 00 00       	pushq  $0x23
  40520b:	e9 b0 fd ff ff       	jmpq   404fc0 <_init+0x28>

0000000000405210 <_ZNSaIcED1Ev@plt>:
  405210:	ff 25 22 6f 20 00    	jmpq   *0x206f22(%rip)        # 60c138 <_GLOBAL_OFFSET_TABLE_+0x138>
  405216:	68 24 00 00 00       	pushq  $0x24
  40521b:	e9 a0 fd ff ff       	jmpq   404fc0 <_init+0x28>

0000000000405220 <_ZNKSt7__cxx1112basic_stringIcSt11char_traitsIcESaIcEE7compareEPKc@plt>:
  405220:	ff 25 1a 6f 20 00    	jmpq   *0x206f1a(%rip)        # 60c140 <_GLOBAL_OFFSET_TABLE_+0x140>
  405226:	68 25 00 00 00       	pushq  $0x25
  40522b:	e9 90 fd ff ff       	jmpq   404fc0 <_init+0x28>

0000000000405230 <_ZNKSt7__cxx1112basic_stringIcSt11char_traitsIcESaIcEE4sizeEv@plt>:
  405230:	ff 25 12 6f 20 00    	jmpq   *0x206f12(%rip)        # 60c148 <_GLOBAL_OFFSET_TABLE_+0x148>
  405236:	68 26 00 00 00       	pushq  $0x26
  40523b:	e9 80 fd ff ff       	jmpq   404fc0 <_init+0x28>

0000000000405240 <memcmp@plt>:
  405240:	ff 25 0a 6f 20 00    	jmpq   *0x206f0a(%rip)        # 60c150 <_GLOBAL_OFFSET_TABLE_+0x150>
  405246:	68 27 00 00 00       	pushq  $0x27
  40524b:	e9 70 fd ff ff       	jmpq   404fc0 <_init+0x28>

0000000000405250 <_ZNSolsEPFRSoS_E@plt>:
  405250:	ff 25 02 6f 20 00    	jmpq   *0x206f02(%rip)        # 60c158 <_GLOBAL_OFFSET_TABLE_+0x158>
  405256:	68 28 00 00 00       	pushq  $0x28
  40525b:	e9 60 fd ff ff       	jmpq   404fc0 <_init+0x28>

0000000000405260 <_ZNSt7__cxx1112basic_stringIcSt11char_traitsIcESaIcEEaSERKS4_@plt>:
  405260:	ff 25 fa 6e 20 00    	jmpq   *0x206efa(%rip)        # 60c160 <_GLOBAL_OFFSET_TABLE_+0x160>
  405266:	68 29 00 00 00       	pushq  $0x29
  40526b:	e9 50 fd ff ff       	jmpq   404fc0 <_init+0x28>

0000000000405270 <_ZNSt14basic_ofstreamIcSt11char_traitsIcEEC1EPKcSt13_Ios_Openmode@plt>:
  405270:	ff 25 f2 6e 20 00    	jmpq   *0x206ef2(%rip)        # 60c168 <_GLOBAL_OFFSET_TABLE_+0x168>
  405276:	68 2a 00 00 00       	pushq  $0x2a
  40527b:	e9 40 fd ff ff       	jmpq   404fc0 <_init+0x28>

0000000000405280 <__cxa_end_catch@plt>:
  405280:	ff 25 ea 6e 20 00    	jmpq   *0x206eea(%rip)        # 60c170 <_GLOBAL_OFFSET_TABLE_+0x170>
  405286:	68 2b 00 00 00       	pushq  $0x2b
  40528b:	e9 30 fd ff ff       	jmpq   404fc0 <_init+0x28>

0000000000405290 <_ZSt17__throw_bad_allocv@plt>:
  405290:	ff 25 e2 6e 20 00    	jmpq   *0x206ee2(%rip)        # 60c178 <_GLOBAL_OFFSET_TABLE_+0x178>
  405296:	68 2c 00 00 00       	pushq  $0x2c
  40529b:	e9 20 fd ff ff       	jmpq   404fc0 <_init+0x28>

00000000004052a0 <_ZNKSt7__cxx1112basic_stringIcSt11char_traitsIcESaIcEE5c_strEv@plt>:
  4052a0:	ff 25 da 6e 20 00    	jmpq   *0x206eda(%rip)        # 60c180 <_GLOBAL_OFFSET_TABLE_+0x180>
  4052a6:	68 2d 00 00 00       	pushq  $0x2d
  4052ab:	e9 10 fd ff ff       	jmpq   404fc0 <_init+0x28>

00000000004052b0 <_ZSt4endlIcSt11char_traitsIcEERSt13basic_ostreamIT_T0_ES6_@plt>:
  4052b0:	ff 25 d2 6e 20 00    	jmpq   *0x206ed2(%rip)        # 60c188 <_GLOBAL_OFFSET_TABLE_+0x188>
  4052b6:	68 2e 00 00 00       	pushq  $0x2e
  4052bb:	e9 00 fd ff ff       	jmpq   404fc0 <_init+0x28>

00000000004052c0 <__cxa_begin_catch@plt>:
  4052c0:	ff 25 ca 6e 20 00    	jmpq   *0x206eca(%rip)        # 60c190 <_GLOBAL_OFFSET_TABLE_+0x190>
  4052c6:	68 2f 00 00 00       	pushq  $0x2f
  4052cb:	e9 f0 fc ff ff       	jmpq   404fc0 <_init+0x28>

00000000004052d0 <_ZNSt7__cxx1112basic_stringIcSt11char_traitsIcESaIcEEC1ERKS4_@plt>:
  4052d0:	ff 25 c2 6e 20 00    	jmpq   *0x206ec2(%rip)        # 60c198 <_GLOBAL_OFFSET_TABLE_+0x198>
  4052d6:	68 30 00 00 00       	pushq  $0x30
  4052db:	e9 e0 fc ff ff       	jmpq   404fc0 <_init+0x28>

00000000004052e0 <_ZNSt7__cxx1112basic_stringIcSt11char_traitsIcESaIcEEC1EPKcRKS3_@plt>:
  4052e0:	ff 25 ba 6e 20 00    	jmpq   *0x206eba(%rip)        # 60c1a0 <_GLOBAL_OFFSET_TABLE_+0x1a0>
  4052e6:	68 31 00 00 00       	pushq  $0x31
  4052eb:	e9 d0 fc ff ff       	jmpq   404fc0 <_init+0x28>

00000000004052f0 <perror@plt>:
  4052f0:	ff 25 b2 6e 20 00    	jmpq   *0x206eb2(%rip)        # 60c1a8 <_GLOBAL_OFFSET_TABLE_+0x1a8>
  4052f6:	68 32 00 00 00       	pushq  $0x32
  4052fb:	e9 c0 fc ff ff       	jmpq   404fc0 <_init+0x28>

0000000000405300 <_ZNSaIcEC1Ev@plt>:
  405300:	ff 25 aa 6e 20 00    	jmpq   *0x206eaa(%rip)        # 60c1b0 <_GLOBAL_OFFSET_TABLE_+0x1b0>
  405306:	68 33 00 00 00       	pushq  $0x33
  40530b:	e9 b0 fc ff ff       	jmpq   404fc0 <_init+0x28>

0000000000405310 <__gxx_personality_v0@plt>:
  405310:	ff 25 a2 6e 20 00    	jmpq   *0x206ea2(%rip)        # 60c1b8 <_GLOBAL_OFFSET_TABLE_+0x1b8>
  405316:	68 34 00 00 00       	pushq  $0x34
  40531b:	e9 a0 fc ff ff       	jmpq   404fc0 <_init+0x28>

0000000000405320 <write@plt>:
  405320:	ff 25 9a 6e 20 00    	jmpq   *0x206e9a(%rip)        # 60c1c0 <_GLOBAL_OFFSET_TABLE_+0x1c0>
  405326:	68 35 00 00 00       	pushq  $0x35
  40532b:	e9 90 fc ff ff       	jmpq   404fc0 <_init+0x28>

0000000000405330 <_Znwm@plt>:
  405330:	ff 25 92 6e 20 00    	jmpq   *0x206e92(%rip)        # 60c1c8 <_GLOBAL_OFFSET_TABLE_+0x1c8>
  405336:	68 36 00 00 00       	pushq  $0x36
  40533b:	e9 80 fc ff ff       	jmpq   404fc0 <_init+0x28>

0000000000405340 <_Unwind_Resume@plt>:
  405340:	ff 25 8a 6e 20 00    	jmpq   *0x206e8a(%rip)        # 60c1d0 <_GLOBAL_OFFSET_TABLE_+0x1d0>
  405346:	68 37 00 00 00       	pushq  $0x37
  40534b:	e9 70 fc ff ff       	jmpq   404fc0 <_init+0x28>

0000000000405350 <_ZNSt7__cxx1112basic_stringIcSt11char_traitsIcESaIcEEpLEc@plt>:
  405350:	ff 25 82 6e 20 00    	jmpq   *0x206e82(%rip)        # 60c1d8 <_GLOBAL_OFFSET_TABLE_+0x1d8>
  405356:	68 38 00 00 00       	pushq  $0x38
  40535b:	e9 60 fc ff ff       	jmpq   404fc0 <_init+0x28>

0000000000405360 <memcpy@plt>:
  405360:	ff 25 7a 6e 20 00    	jmpq   *0x206e7a(%rip)        # 60c1e0 <_GLOBAL_OFFSET_TABLE_+0x1e0>
  405366:	68 39 00 00 00       	pushq  $0x39
  40536b:	e9 50 fc ff ff       	jmpq   404fc0 <_init+0x28>

0000000000405370 <fcntl@plt>:
  405370:	ff 25 72 6e 20 00    	jmpq   *0x206e72(%rip)        # 60c1e8 <_GLOBAL_OFFSET_TABLE_+0x1e8>
  405376:	68 3a 00 00 00       	pushq  $0x3a
  40537b:	e9 40 fc ff ff       	jmpq   404fc0 <_init+0x28>

0000000000405380 <inet_addr@plt>:
  405380:	ff 25 6a 6e 20 00    	jmpq   *0x206e6a(%rip)        # 60c1f0 <_GLOBAL_OFFSET_TABLE_+0x1f0>
  405386:	68 3b 00 00 00       	pushq  $0x3b
  40538b:	e9 30 fc ff ff       	jmpq   404fc0 <_init+0x28>

Disassembly of section .plt.got:

0000000000405390 <.plt.got>:
  405390:	ff 25 62 6c 20 00    	jmpq   *0x206c62(%rip)        # 60bff8 <_DYNAMIC+0x200>
  405396:	66 90                	xchg   %ax,%ax

Disassembly of section .text:

00000000004053a0 <_start>:
  4053a0:	31 ed                	xor    %ebp,%ebp
  4053a2:	49 89 d1             	mov    %rdx,%r9
  4053a5:	5e                   	pop    %rsi
  4053a6:	48 89 e2             	mov    %rsp,%rdx
  4053a9:	48 83 e4 f0          	and    $0xfffffffffffffff0,%rsp
  4053ad:	50                   	push   %rax
  4053ae:	54                   	push   %rsp
  4053af:	49 c7 c0 90 9a 40 00 	mov    $0x409a90,%r8
  4053b6:	48 c7 c1 20 9a 40 00 	mov    $0x409a20,%rcx
  4053bd:	48 c7 c7 69 8a 40 00 	mov    $0x408a69,%rdi
  4053c4:	e8 07 fd ff ff       	callq  4050d0 <__libc_start_main@plt>
  4053c9:	f4                   	hlt    
  4053ca:	66 0f 1f 44 00 00    	nopw   0x0(%rax,%rax,1)

00000000004053d0 <deregister_tm_clones>:
  4053d0:	b8 0f c2 60 00       	mov    $0x60c20f,%eax
  4053d5:	55                   	push   %rbp
  4053d6:	48 2d 08 c2 60 00    	sub    $0x60c208,%rax
  4053dc:	48 83 f8 0e          	cmp    $0xe,%rax
  4053e0:	48 89 e5             	mov    %rsp,%rbp
  4053e3:	76 1b                	jbe    405400 <deregister_tm_clones+0x30>
  4053e5:	b8 00 00 00 00       	mov    $0x0,%eax
  4053ea:	48 85 c0             	test   %rax,%rax
  4053ed:	74 11                	je     405400 <deregister_tm_clones+0x30>
  4053ef:	5d                   	pop    %rbp
  4053f0:	bf 08 c2 60 00       	mov    $0x60c208,%edi
  4053f5:	ff e0                	jmpq   *%rax
  4053f7:	66 0f 1f 84 00 00 00 	nopw   0x0(%rax,%rax,1)
  4053fe:	00 00 
  405400:	5d                   	pop    %rbp
  405401:	c3                   	retq   
  405402:	0f 1f 40 00          	nopl   0x0(%rax)
  405406:	66 2e 0f 1f 84 00 00 	nopw   %cs:0x0(%rax,%rax,1)
  40540d:	00 00 00 

0000000000405410 <register_tm_clones>:
  405410:	be 08 c2 60 00       	mov    $0x60c208,%esi
  405415:	55                   	push   %rbp
  405416:	48 81 ee 08 c2 60 00 	sub    $0x60c208,%rsi
  40541d:	48 c1 fe 03          	sar    $0x3,%rsi
  405421:	48 89 e5             	mov    %rsp,%rbp
  405424:	48 89 f0             	mov    %rsi,%rax
  405427:	48 c1 e8 3f          	shr    $0x3f,%rax
  40542b:	48 01 c6             	add    %rax,%rsi
  40542e:	48 d1 fe             	sar    %rsi
  405431:	74 15                	je     405448 <register_tm_clones+0x38>
  405433:	b8 00 00 00 00       	mov    $0x0,%eax
  405438:	48 85 c0             	test   %rax,%rax
  40543b:	74 0b                	je     405448 <register_tm_clones+0x38>
  40543d:	5d                   	pop    %rbp
  40543e:	bf 08 c2 60 00       	mov    $0x60c208,%edi
  405443:	ff e0                	jmpq   *%rax
  405445:	0f 1f 00             	nopl   (%rax)
  405448:	5d                   	pop    %rbp
  405449:	c3                   	retq   
  40544a:	66 0f 1f 44 00 00    	nopw   0x0(%rax,%rax,1)

0000000000405450 <__do_global_dtors_aux>:
  405450:	80 3d d9 6e 20 00 00 	cmpb   $0x0,0x206ed9(%rip)        # 60c330 <completed.7594>
  405457:	75 11                	jne    40546a <__do_global_dtors_aux+0x1a>
  405459:	55                   	push   %rbp
  40545a:	48 89 e5             	mov    %rsp,%rbp
  40545d:	e8 6e ff ff ff       	callq  4053d0 <deregister_tm_clones>
  405462:	5d                   	pop    %rbp
  405463:	c6 05 c6 6e 20 00 01 	movb   $0x1,0x206ec6(%rip)        # 60c330 <completed.7594>
  40546a:	f3 c3                	repz retq 
  40546c:	0f 1f 40 00          	nopl   0x0(%rax)

0000000000405470 <frame_dummy>:
  405470:	bf f0 bd 60 00       	mov    $0x60bdf0,%edi
  405475:	48 83 3f 00          	cmpq   $0x0,(%rdi)
  405479:	75 05                	jne    405480 <frame_dummy+0x10>
  40547b:	eb 93                	jmp    405410 <register_tm_clones>
  40547d:	0f 1f 00             	nopl   (%rax)
  405480:	b8 00 00 00 00       	mov    $0x0,%eax
  405485:	48 85 c0             	test   %rax,%rax
  405488:	74 f1                	je     40547b <frame_dummy+0xb>
  40548a:	55                   	push   %rbp
  40548b:	48 89 e5             	mov    %rsp,%rbp
  40548e:	ff d0                	callq  *%rax
  405490:	5d                   	pop    %rbp
  405491:	e9 7a ff ff ff       	jmpq   405410 <register_tm_clones>

0000000000405496 <_ZN7encoderC1Ev>:
  405496:	55                   	push   %rbp
  405497:	48 89 e5             	mov    %rsp,%rbp
  40549a:	53                   	push   %rbx
  40549b:	48 83 ec 18          	sub    $0x18,%rsp
  40549f:	48 89 7d e8          	mov    %rdi,-0x18(%rbp)
  4054a3:	48 8b 45 e8          	mov    -0x18(%rbp),%rax
  4054a7:	48 89 c7             	mov    %rax,%rdi
  4054aa:	e8 71 fc ff ff       	callq  405120 <_ZNSt7__cxx1112basic_stringIcSt11char_traitsIcESaIcEEC1Ev@plt>
  4054af:	48 8b 45 e8          	mov    -0x18(%rbp),%rax
  4054b3:	48 83 c0 20          	add    $0x20,%rax
  4054b7:	48 89 c7             	mov    %rax,%rdi
  4054ba:	e8 87 09 00 00       	callq  405e46 <_ZNSt6vectorI9key_valueSaIS0_EEC1Ev>
  4054bf:	eb 1a                	jmp    4054db <_ZN7encoderC1Ev+0x45>
  4054c1:	48 89 c3             	mov    %rax,%rbx
  4054c4:	48 8b 45 e8          	mov    -0x18(%rbp),%rax
  4054c8:	48 89 c7             	mov    %rax,%rdi
  4054cb:	e8 80 fc ff ff       	callq  405150 <_ZNSt7__cxx1112basic_stringIcSt11char_traitsIcESaIcEED1Ev@plt>
  4054d0:	48 89 d8             	mov    %rbx,%rax
  4054d3:	48 89 c7             	mov    %rax,%rdi
  4054d6:	e8 65 fe ff ff       	callq  405340 <_Unwind_Resume@plt>
  4054db:	48 83 c4 18          	add    $0x18,%rsp
  4054df:	5b                   	pop    %rbx
  4054e0:	5d                   	pop    %rbp
  4054e1:	c3                   	retq   

00000000004054e2 <_ZN7encoderD1Ev>:
  4054e2:	55                   	push   %rbp
  4054e3:	48 89 e5             	mov    %rsp,%rbp
  4054e6:	53                   	push   %rbx
  4054e7:	48 83 ec 18          	sub    $0x18,%rsp
  4054eb:	48 89 7d e8          	mov    %rdi,-0x18(%rbp)
  4054ef:	48 8b 45 e8          	mov    -0x18(%rbp),%rax
  4054f3:	48 83 c0 20          	add    $0x20,%rax
  4054f7:	48 89 c7             	mov    %rax,%rdi
  4054fa:	e8 63 09 00 00       	callq  405e62 <_ZNSt6vectorI9key_valueSaIS0_EED1Ev>
  4054ff:	48 8b 45 e8          	mov    -0x18(%rbp),%rax
  405503:	48 89 c7             	mov    %rax,%rdi
  405506:	e8 45 fc ff ff       	callq  405150 <_ZNSt7__cxx1112basic_stringIcSt11char_traitsIcESaIcEED1Ev@plt>
  40550b:	eb 1a                	jmp    405527 <_ZN7encoderD1Ev+0x45>
  40550d:	48 89 c3             	mov    %rax,%rbx
  405510:	48 8b 45 e8          	mov    -0x18(%rbp),%rax
  405514:	48 89 c7             	mov    %rax,%rdi
  405517:	e8 34 fc ff ff       	callq  405150 <_ZNSt7__cxx1112basic_stringIcSt11char_traitsIcESaIcEED1Ev@plt>
  40551c:	48 89 d8             	mov    %rbx,%rax
  40551f:	48 89 c7             	mov    %rax,%rdi
  405522:	e8 19 fe ff ff       	callq  405340 <_Unwind_Resume@plt>
  405527:	48 83 c4 18          	add    $0x18,%rsp
  40552b:	5b                   	pop    %rbx
  40552c:	5d                   	pop    %rbp
  40552d:	c3                   	retq   

000000000040552e <_ZN7encoder8add_itemEPKcS1_>:
  40552e:	55                   	push   %rbp
  40552f:	48 89 e5             	mov    %rsp,%rbp
  405532:	48 83 ec 20          	sub    $0x20,%rsp
  405536:	48 89 7d f8          	mov    %rdi,-0x8(%rbp)
  40553a:	48 89 75 f0          	mov    %rsi,-0x10(%rbp)
  40553e:	48 89 55 e8          	mov    %rdx,-0x18(%rbp)
  405542:	48 8b 45 f0          	mov    -0x10(%rbp),%rax
  405546:	0f b6 00             	movzbl (%rax),%eax
  405549:	84 c0                	test   %al,%al
  40554b:	74 65                	je     4055b2 <_ZN7encoder8add_itemEPKcS1_+0x84>
  40554d:	48 8b 45 f0          	mov    -0x10(%rbp),%rax
  405551:	0f b6 00             	movzbl (%rax),%eax
  405554:	3c 2f                	cmp    $0x2f,%al
  405556:	75 18                	jne    405570 <_ZN7encoder8add_itemEPKcS1_+0x42>
  405558:	48 8b 45 f8          	mov    -0x8(%rbp),%rax
  40555c:	ba 02 00 00 00       	mov    $0x2,%edx
  405561:	be a4 9a 40 00       	mov    $0x409aa4,%esi
  405566:	48 89 c7             	mov    %rax,%rdi
  405569:	e8 32 fb ff ff       	callq  4050a0 <_ZNSt7__cxx1112basic_stringIcSt11char_traitsIcESaIcEE6appendEPKcm@plt>
  40556e:	eb 3b                	jmp    4055ab <_ZN7encoder8add_itemEPKcS1_+0x7d>
  405570:	48 8b 45 f0          	mov    -0x10(%rbp),%rax
  405574:	0f b6 00             	movzbl (%rax),%eax
  405577:	3c 40                	cmp    $0x40,%al
  405579:	75 18                	jne    405593 <_ZN7encoder8add_itemEPKcS1_+0x65>
  40557b:	48 8b 45 f8          	mov    -0x8(%rbp),%rax
  40557f:	ba 02 00 00 00       	mov    $0x2,%edx
  405584:	be a7 9a 40 00       	mov    $0x409aa7,%esi
  405589:	48 89 c7             	mov    %rax,%rdi
  40558c:	e8 0f fb ff ff       	callq  4050a0 <_ZNSt7__cxx1112basic_stringIcSt11char_traitsIcESaIcEE6appendEPKcm@plt>
  405591:	eb 18                	jmp    4055ab <_ZN7encoder8add_itemEPKcS1_+0x7d>
  405593:	48 8b 45 f0          	mov    -0x10(%rbp),%rax
  405597:	0f b6 00             	movzbl (%rax),%eax
  40559a:	0f be d0             	movsbl %al,%edx
  40559d:	48 8b 45 f8          	mov    -0x8(%rbp),%rax
  4055a1:	89 d6                	mov    %edx,%esi
  4055a3:	48 89 c7             	mov    %rax,%rdi
  4055a6:	e8 a5 fd ff ff       	callq  405350 <_ZNSt7__cxx1112basic_stringIcSt11char_traitsIcESaIcEEpLEc@plt>
  4055ab:	48 83 45 f0 01       	addq   $0x1,-0x10(%rbp)
  4055b0:	eb 90                	jmp    405542 <_ZN7encoder8add_itemEPKcS1_+0x14>
  4055b2:	48 8b 45 f8          	mov    -0x8(%rbp),%rax
  4055b6:	ba 02 00 00 00       	mov    $0x2,%edx
  4055bb:	be aa 9a 40 00       	mov    $0x409aaa,%esi
  4055c0:	48 89 c7             	mov    %rax,%rdi
  4055c3:	e8 d8 fa ff ff       	callq  4050a0 <_ZNSt7__cxx1112basic_stringIcSt11char_traitsIcESaIcEE6appendEPKcm@plt>
  4055c8:	48 8b 45 e8          	mov    -0x18(%rbp),%rax
  4055cc:	0f b6 00             	movzbl (%rax),%eax
  4055cf:	84 c0                	test   %al,%al
  4055d1:	74 65                	je     405638 <_ZN7encoder8add_itemEPKcS1_+0x10a>
  4055d3:	48 8b 45 e8          	mov    -0x18(%rbp),%rax
  4055d7:	0f b6 00             	movzbl (%rax),%eax
  4055da:	3c 2f                	cmp    $0x2f,%al
  4055dc:	75 18                	jne    4055f6 <_ZN7encoder8add_itemEPKcS1_+0xc8>
  4055de:	48 8b 45 f8          	mov    -0x8(%rbp),%rax
  4055e2:	ba 02 00 00 00       	mov    $0x2,%edx
  4055e7:	be a4 9a 40 00       	mov    $0x409aa4,%esi
  4055ec:	48 89 c7             	mov    %rax,%rdi
  4055ef:	e8 ac fa ff ff       	callq  4050a0 <_ZNSt7__cxx1112basic_stringIcSt11char_traitsIcESaIcEE6appendEPKcm@plt>
  4055f4:	eb 3b                	jmp    405631 <_ZN7encoder8add_itemEPKcS1_+0x103>
  4055f6:	48 8b 45 e8          	mov    -0x18(%rbp),%rax
  4055fa:	0f b6 00             	movzbl (%rax),%eax
  4055fd:	3c 40                	cmp    $0x40,%al
  4055ff:	75 18                	jne    405619 <_ZN7encoder8add_itemEPKcS1_+0xeb>
  405601:	48 8b 45 f8          	mov    -0x8(%rbp),%rax
  405605:	ba 02 00 00 00       	mov    $0x2,%edx
  40560a:	be a7 9a 40 00       	mov    $0x409aa7,%esi
  40560f:	48 89 c7             	mov    %rax,%rdi
  405612:	e8 89 fa ff ff       	callq  4050a0 <_ZNSt7__cxx1112basic_stringIcSt11char_traitsIcESaIcEE6appendEPKcm@plt>
  405617:	eb 18                	jmp    405631 <_ZN7encoder8add_itemEPKcS1_+0x103>
  405619:	48 8b 45 e8          	mov    -0x18(%rbp),%rax
  40561d:	0f b6 00             	movzbl (%rax),%eax
  405620:	0f be d0             	movsbl %al,%edx
  405623:	48 8b 45 f8          	mov    -0x8(%rbp),%rax
  405627:	89 d6                	mov    %edx,%esi
  405629:	48 89 c7             	mov    %rax,%rdi
  40562c:	e8 1f fd ff ff       	callq  405350 <_ZNSt7__cxx1112basic_stringIcSt11char_traitsIcESaIcEEpLEc@plt>
  405631:	48 83 45 e8 01       	addq   $0x1,-0x18(%rbp)
  405636:	eb 90                	jmp    4055c8 <_ZN7encoder8add_itemEPKcS1_+0x9a>
  405638:	48 8b 45 f8          	mov    -0x8(%rbp),%rax
  40563c:	ba 01 00 00 00       	mov    $0x1,%edx
  405641:	be ad 9a 40 00       	mov    $0x409aad,%esi
  405646:	48 89 c7             	mov    %rax,%rdi
  405649:	e8 52 fa ff ff       	callq  4050a0 <_ZNSt7__cxx1112basic_stringIcSt11char_traitsIcESaIcEE6appendEPKcm@plt>
  40564e:	90                   	nop
  40564f:	c9                   	leaveq 
  405650:	c3                   	retq   
  405651:	90                   	nop

0000000000405652 <_ZN7encoder8add_itemEPKci>:
  405652:	55                   	push   %rbp
  405653:	48 89 e5             	mov    %rsp,%rbp
  405656:	48 83 ec 70          	sub    $0x70,%rsp
  40565a:	48 89 7d a8          	mov    %rdi,-0x58(%rbp)
  40565e:	48 89 75 a0          	mov    %rsi,-0x60(%rbp)
  405662:	89 55 9c             	mov    %edx,-0x64(%rbp)
  405665:	64 48 8b 04 25 28 00 	mov    %fs:0x28,%rax
  40566c:	00 00 
  40566e:	48 89 45 f8          	mov    %rax,-0x8(%rbp)
  405672:	31 c0                	xor    %eax,%eax
  405674:	48 8d 55 b0          	lea    -0x50(%rbp),%rdx
  405678:	b8 00 00 00 00       	mov    $0x0,%eax
  40567d:	b9 08 00 00 00       	mov    $0x8,%ecx
  405682:	48 89 d7             	mov    %rdx,%rdi
  405685:	f3 48 ab             	rep stos %rax,%es:(%rdi)
  405688:	8b 55 9c             	mov    -0x64(%rbp),%edx
  40568b:	48 8d 45 b0          	lea    -0x50(%rbp),%rax
  40568f:	89 d1                	mov    %edx,%ecx
  405691:	ba af 9a 40 00       	mov    $0x409aaf,%edx
  405696:	be 40 00 00 00       	mov    $0x40,%esi
  40569b:	48 89 c7             	mov    %rax,%rdi
  40569e:	b8 00 00 00 00       	mov    $0x0,%eax
  4056a3:	e8 58 f9 ff ff       	callq  405000 <snprintf@plt>
  4056a8:	48 8d 55 b0          	lea    -0x50(%rbp),%rdx
  4056ac:	48 8b 4d a0          	mov    -0x60(%rbp),%rcx
  4056b0:	48 8b 45 a8          	mov    -0x58(%rbp),%rax
  4056b4:	48 89 ce             	mov    %rcx,%rsi
  4056b7:	48 89 c7             	mov    %rax,%rdi
  4056ba:	e8 6f fe ff ff       	callq  40552e <_ZN7encoder8add_itemEPKcS1_>
  4056bf:	90                   	nop
  4056c0:	48 8b 45 f8          	mov    -0x8(%rbp),%rax
  4056c4:	64 48 33 04 25 28 00 	xor    %fs:0x28,%rax
  4056cb:	00 00 
  4056cd:	74 05                	je     4056d4 <_ZN7encoder8add_itemEPKci+0x82>
  4056cf:	e8 2c fb ff ff       	callq  405200 <__stack_chk_fail@plt>
  4056d4:	c9                   	leaveq 
  4056d5:	c3                   	retq   

00000000004056d6 <_ZN7encoder10get_resultB5cxx11EPi>:
  4056d6:	55                   	push   %rbp
  4056d7:	48 89 e5             	mov    %rsp,%rbp
  4056da:	53                   	push   %rbx
  4056db:	48 83 ec 68          	sub    $0x68,%rsp
  4056df:	48 89 7d a8          	mov    %rdi,-0x58(%rbp)
  4056e3:	48 89 75 a0          	mov    %rsi,-0x60(%rbp)
  4056e7:	48 89 55 98          	mov    %rdx,-0x68(%rbp)
  4056eb:	64 48 8b 04 25 28 00 	mov    %fs:0x28,%rax
  4056f2:	00 00 
  4056f4:	48 89 45 e8          	mov    %rax,-0x18(%rbp)
  4056f8:	31 c0                	xor    %eax,%eax
  4056fa:	c6 45 bf 00          	movb   $0x0,-0x41(%rbp)
  4056fe:	48 8b 45 a0          	mov    -0x60(%rbp),%rax
  405702:	48 8d 4d bf          	lea    -0x41(%rbp),%rcx
  405706:	ba 01 00 00 00       	mov    $0x1,%edx
  40570b:	48 89 ce             	mov    %rcx,%rsi
  40570e:	48 89 c7             	mov    %rax,%rdi
  405711:	e8 8a f9 ff ff       	callq  4050a0 <_ZNSt7__cxx1112basic_stringIcSt11char_traitsIcESaIcEE6appendEPKcm@plt>
  405716:	48 8b 55 a0          	mov    -0x60(%rbp),%rdx
  40571a:	48 8d 45 c0          	lea    -0x40(%rbp),%rax
  40571e:	48 89 d6             	mov    %rdx,%rsi
  405721:	48 89 c7             	mov    %rax,%rdi
  405724:	e8 a7 fb ff ff       	callq  4052d0 <_ZNSt7__cxx1112basic_stringIcSt11char_traitsIcESaIcEEC1ERKS4_@plt>
  405729:	48 8b 45 a8          	mov    -0x58(%rbp),%rax
  40572d:	48 8d 55 c0          	lea    -0x40(%rbp),%rdx
  405731:	48 8b 4d a0          	mov    -0x60(%rbp),%rcx
  405735:	48 89 ce             	mov    %rcx,%rsi
  405738:	48 89 c7             	mov    %rax,%rdi
  40573b:	e8 90 00 00 00       	callq  4057d0 <_ZN7encoder11pack_headerENSt7__cxx1112basic_stringIcSt11char_traitsIcESaIcEEE>
  405740:	48 8d 45 c0          	lea    -0x40(%rbp),%rax
  405744:	48 89 c7             	mov    %rax,%rdi
  405747:	e8 04 fa ff ff       	callq  405150 <_ZNSt7__cxx1112basic_stringIcSt11char_traitsIcESaIcEED1Ev@plt>
  40574c:	48 8b 45 a8          	mov    -0x58(%rbp),%rax
  405750:	48 89 c7             	mov    %rax,%rdi
  405753:	e8 d8 fa ff ff       	callq  405230 <_ZNKSt7__cxx1112basic_stringIcSt11char_traitsIcESaIcEE4sizeEv@plt>
  405758:	89 c2                	mov    %eax,%edx
  40575a:	48 8b 45 98          	mov    -0x68(%rbp),%rax
  40575e:	89 10                	mov    %edx,(%rax)
  405760:	90                   	nop
  405761:	48 8b 45 a8          	mov    -0x58(%rbp),%rax
  405765:	48 8b 4d e8          	mov    -0x18(%rbp),%rcx
  405769:	64 48 33 0c 25 28 00 	xor    %fs:0x28,%rcx
  405770:	00 00 
  405772:	74 55                	je     4057c9 <_ZN7encoder10get_resultB5cxx11EPi+0xf3>
  405774:	eb 4e                	jmp    4057c4 <_ZN7encoder10get_resultB5cxx11EPi+0xee>
  405776:	48 89 c3             	mov    %rax,%rbx
  405779:	48 8d 45 c0          	lea    -0x40(%rbp),%rax
  40577d:	48 89 c7             	mov    %rax,%rdi
  405780:	e8 cb f9 ff ff       	callq  405150 <_ZNSt7__cxx1112basic_stringIcSt11char_traitsIcESaIcEED1Ev@plt>
  405785:	48 89 d8             	mov    %rbx,%rax
  405788:	48 89 c7             	mov    %rax,%rdi
  40578b:	e8 b0 fb ff ff       	callq  405340 <_Unwind_Resume@plt>
  405790:	48 89 c3             	mov    %rax,%rbx
  405793:	48 8b 45 a8          	mov    -0x58(%rbp),%rax
  405797:	48 89 c7             	mov    %rax,%rdi
  40579a:	e8 b1 f9 ff ff       	callq  405150 <_ZNSt7__cxx1112basic_stringIcSt11char_traitsIcESaIcEED1Ev@plt>
  40579f:	48 89 d8             	mov    %rbx,%rax
  4057a2:	48 89 c7             	mov    %rax,%rdi
  4057a5:	e8 96 fb ff ff       	callq  405340 <_Unwind_Resume@plt>
  4057aa:	48 89 c3             	mov    %rax,%rbx
  4057ad:	48 8b 45 a8          	mov    -0x58(%rbp),%rax
  4057b1:	48 89 c7             	mov    %rax,%rdi
  4057b4:	e8 97 f9 ff ff       	callq  405150 <_ZNSt7__cxx1112basic_stringIcSt11char_traitsIcESaIcEED1Ev@plt>
  4057b9:	48 89 d8             	mov    %rbx,%rax
  4057bc:	48 89 c7             	mov    %rax,%rdi
  4057bf:	e8 7c fb ff ff       	callq  405340 <_Unwind_Resume@plt>
  4057c4:	e8 37 fa ff ff       	callq  405200 <__stack_chk_fail@plt>
  4057c9:	48 83 c4 68          	add    $0x68,%rsp
  4057cd:	5b                   	pop    %rbx
  4057ce:	5d                   	pop    %rbp
  4057cf:	c3                   	retq   

00000000004057d0 <_ZN7encoder11pack_headerENSt7__cxx1112basic_stringIcSt11char_traitsIcESaIcEEE>:
  4057d0:	55                   	push   %rbp
  4057d1:	48 89 e5             	mov    %rsp,%rbp
  4057d4:	53                   	push   %rbx
  4057d5:	48 83 ec 38          	sub    $0x38,%rsp
  4057d9:	48 89 7d d8          	mov    %rdi,-0x28(%rbp)
  4057dd:	48 89 75 d0          	mov    %rsi,-0x30(%rbp)
  4057e1:	48 89 55 c8          	mov    %rdx,-0x38(%rbp)
  4057e5:	64 48 8b 04 25 28 00 	mov    %fs:0x28,%rax
  4057ec:	00 00 
  4057ee:	48 89 45 e8          	mov    %rax,-0x18(%rbp)
  4057f2:	31 c0                	xor    %eax,%eax
  4057f4:	48 8b 45 d8          	mov    -0x28(%rbp),%rax
  4057f8:	48 89 c7             	mov    %rax,%rdi
  4057fb:	e8 20 f9 ff ff       	callq  405120 <_ZNSt7__cxx1112basic_stringIcSt11char_traitsIcESaIcEEC1Ev@plt>
  405800:	48 8b 45 c8          	mov    -0x38(%rbp),%rax
  405804:	48 89 c7             	mov    %rax,%rdi
  405807:	e8 74 f8 ff ff       	callq  405080 <_ZNKSt7__cxx1112basic_stringIcSt11char_traitsIcESaIcEE6lengthEv@plt>
  40580c:	83 c0 08             	add    $0x8,%eax
  40580f:	89 45 e4             	mov    %eax,-0x1c(%rbp)
  405812:	66 c7 45 e2 b1 02    	movw   $0x2b1,-0x1e(%rbp)
  405818:	c6 45 e0 00          	movb   $0x0,-0x20(%rbp)
  40581c:	c6 45 e1 00          	movb   $0x0,-0x1f(%rbp)
  405820:	48 8d 4d e4          	lea    -0x1c(%rbp),%rcx
  405824:	48 8b 45 d8          	mov    -0x28(%rbp),%rax
  405828:	ba 04 00 00 00       	mov    $0x4,%edx
  40582d:	48 89 ce             	mov    %rcx,%rsi
  405830:	48 89 c7             	mov    %rax,%rdi
  405833:	e8 68 f8 ff ff       	callq  4050a0 <_ZNSt7__cxx1112basic_stringIcSt11char_traitsIcESaIcEE6appendEPKcm@plt>
  405838:	48 8d 4d e4          	lea    -0x1c(%rbp),%rcx
  40583c:	48 8b 45 d8          	mov    -0x28(%rbp),%rax
  405840:	ba 04 00 00 00       	mov    $0x4,%edx
  405845:	48 89 ce             	mov    %rcx,%rsi
  405848:	48 89 c7             	mov    %rax,%rdi
  40584b:	e8 50 f8 ff ff       	callq  4050a0 <_ZNSt7__cxx1112basic_stringIcSt11char_traitsIcESaIcEE6appendEPKcm@plt>
  405850:	48 8d 4d e2          	lea    -0x1e(%rbp),%rcx
  405854:	48 8b 45 d8          	mov    -0x28(%rbp),%rax
  405858:	ba 02 00 00 00       	mov    $0x2,%edx
  40585d:	48 89 ce             	mov    %rcx,%rsi
  405860:	48 89 c7             	mov    %rax,%rdi
  405863:	e8 38 f8 ff ff       	callq  4050a0 <_ZNSt7__cxx1112basic_stringIcSt11char_traitsIcESaIcEE6appendEPKcm@plt>
  405868:	48 8d 4d e0          	lea    -0x20(%rbp),%rcx
  40586c:	48 8b 45 d8          	mov    -0x28(%rbp),%rax
  405870:	ba 01 00 00 00       	mov    $0x1,%edx
  405875:	48 89 ce             	mov    %rcx,%rsi
  405878:	48 89 c7             	mov    %rax,%rdi
  40587b:	e8 20 f8 ff ff       	callq  4050a0 <_ZNSt7__cxx1112basic_stringIcSt11char_traitsIcESaIcEE6appendEPKcm@plt>
  405880:	48 8d 4d e1          	lea    -0x1f(%rbp),%rcx
  405884:	48 8b 45 d8          	mov    -0x28(%rbp),%rax
  405888:	ba 01 00 00 00       	mov    $0x1,%edx
  40588d:	48 89 ce             	mov    %rcx,%rsi
  405890:	48 89 c7             	mov    %rax,%rdi
  405893:	e8 08 f8 ff ff       	callq  4050a0 <_ZNSt7__cxx1112basic_stringIcSt11char_traitsIcESaIcEE6appendEPKcm@plt>
  405898:	48 8b 45 c8          	mov    -0x38(%rbp),%rax
  40589c:	48 89 c7             	mov    %rax,%rdi
  40589f:	e8 8c f9 ff ff       	callq  405230 <_ZNKSt7__cxx1112basic_stringIcSt11char_traitsIcESaIcEE4sizeEv@plt>
  4058a4:	48 89 c3             	mov    %rax,%rbx
  4058a7:	48 8b 45 c8          	mov    -0x38(%rbp),%rax
  4058ab:	48 89 c7             	mov    %rax,%rdi
  4058ae:	e8 dd f8 ff ff       	callq  405190 <_ZNKSt7__cxx1112basic_stringIcSt11char_traitsIcESaIcEE4dataEv@plt>
  4058b3:	48 89 c1             	mov    %rax,%rcx
  4058b6:	48 8b 45 d8          	mov    -0x28(%rbp),%rax
  4058ba:	48 89 da             	mov    %rbx,%rdx
  4058bd:	48 89 ce             	mov    %rcx,%rsi
  4058c0:	48 89 c7             	mov    %rax,%rdi
  4058c3:	e8 d8 f7 ff ff       	callq  4050a0 <_ZNSt7__cxx1112basic_stringIcSt11char_traitsIcESaIcEE6appendEPKcm@plt>
  4058c8:	90                   	nop
  4058c9:	48 8b 45 d8          	mov    -0x28(%rbp),%rax
  4058cd:	48 8b 5d e8          	mov    -0x18(%rbp),%rbx
  4058d1:	64 48 33 1c 25 28 00 	xor    %fs:0x28,%rbx
  4058d8:	00 00 
  4058da:	74 21                	je     4058fd <_ZN7encoder11pack_headerENSt7__cxx1112basic_stringIcSt11char_traitsIcESaIcEEE+0x12d>
  4058dc:	eb 1a                	jmp    4058f8 <_ZN7encoder11pack_headerENSt7__cxx1112basic_stringIcSt11char_traitsIcESaIcEEE+0x128>
  4058de:	48 89 c3             	mov    %rax,%rbx
  4058e1:	48 8b 45 d8          	mov    -0x28(%rbp),%rax
  4058e5:	48 89 c7             	mov    %rax,%rdi
  4058e8:	e8 63 f8 ff ff       	callq  405150 <_ZNSt7__cxx1112basic_stringIcSt11char_traitsIcESaIcEED1Ev@plt>
  4058ed:	48 89 d8             	mov    %rbx,%rax
  4058f0:	48 89 c7             	mov    %rax,%rdi
  4058f3:	e8 48 fa ff ff       	callq  405340 <_Unwind_Resume@plt>
  4058f8:	e8 03 f9 ff ff       	callq  405200 <__stack_chk_fail@plt>
  4058fd:	48 83 c4 38          	add    $0x38,%rsp
  405901:	5b                   	pop    %rbx
  405902:	5d                   	pop    %rbp
  405903:	c3                   	retq   

0000000000405904 <_ZN7encoder5parseEPKh>:
  405904:	55                   	push   %rbp
  405905:	48 89 e5             	mov    %rsp,%rbp
  405908:	53                   	push   %rbx
  405909:	48 83 ec 78          	sub    $0x78,%rsp
  40590d:	48 89 7d 88          	mov    %rdi,-0x78(%rbp)
  405911:	48 89 75 80          	mov    %rsi,-0x80(%rbp)
  405915:	64 48 8b 04 25 28 00 	mov    %fs:0x28,%rax
  40591c:	00 00 
  40591e:	48 89 45 e8          	mov    %rax,-0x18(%rbp)
  405922:	31 c0                	xor    %eax,%eax
  405924:	48 8b 45 88          	mov    -0x78(%rbp),%rax
  405928:	48 83 c0 20          	add    $0x20,%rax
  40592c:	48 89 c7             	mov    %rax,%rdi
  40592f:	e8 94 05 00 00       	callq  405ec8 <_ZNSt6vectorI9key_valueSaIS0_EE5clearEv>
  405934:	48 8b 45 80          	mov    -0x80(%rbp),%rax
  405938:	0f b6 00             	movzbl (%rax),%eax
  40593b:	84 c0                	test   %al,%al
  40593d:	75 0a                	jne    405949 <_ZN7encoder5parseEPKh+0x45>
  40593f:	b8 ff ff ff ff       	mov    $0xffffffff,%eax
  405944:	e9 aa 01 00 00       	jmpq   405af3 <_ZN7encoder5parseEPKh+0x1ef>
  405949:	48 8b 45 88          	mov    -0x78(%rbp),%rax
  40594d:	48 89 c7             	mov    %rax,%rdi
  405950:	e8 bb f7 ff ff       	callq  405110 <_ZNSt7__cxx1112basic_stringIcSt11char_traitsIcESaIcEE5clearEv@plt>
  405955:	48 8d 45 a0          	lea    -0x60(%rbp),%rax
  405959:	48 89 c7             	mov    %rax,%rdi
  40595c:	e8 4d 04 00 00       	callq  405dae <_ZN9key_valueC1Ev>
  405961:	48 8b 45 80          	mov    -0x80(%rbp),%rax
  405965:	0f b6 00             	movzbl (%rax),%eax
  405968:	84 c0                	test   %al,%al
  40596a:	0f 84 07 01 00 00    	je     405a77 <_ZN7encoder5parseEPKh+0x173>
  405970:	48 8b 45 80          	mov    -0x80(%rbp),%rax
  405974:	0f b6 00             	movzbl (%rax),%eax
  405977:	3c 2f                	cmp    $0x2f,%al
  405979:	75 5b                	jne    4059d6 <_ZN7encoder5parseEPKh+0xd2>
  40597b:	48 8b 45 88          	mov    -0x78(%rbp),%rax
  40597f:	48 8d 55 a0          	lea    -0x60(%rbp),%rdx
  405983:	48 83 c2 20          	add    $0x20,%rdx
  405987:	48 89 c6             	mov    %rax,%rsi
  40598a:	48 89 d7             	mov    %rdx,%rdi
  40598d:	e8 ce f8 ff ff       	callq  405260 <_ZNSt7__cxx1112basic_stringIcSt11char_traitsIcESaIcEEaSERKS4_@plt>
  405992:	48 8b 45 88          	mov    -0x78(%rbp),%rax
  405996:	48 89 c7             	mov    %rax,%rdi
  405999:	e8 72 f7 ff ff       	callq  405110 <_ZNSt7__cxx1112basic_stringIcSt11char_traitsIcESaIcEE5clearEv@plt>
  40599e:	48 8b 45 88          	mov    -0x78(%rbp),%rax
  4059a2:	48 8d 50 20          	lea    0x20(%rax),%rdx
  4059a6:	48 8d 45 a0          	lea    -0x60(%rbp),%rax
  4059aa:	48 89 c6             	mov    %rax,%rsi
  4059ad:	48 89 d7             	mov    %rdx,%rdi
  4059b0:	e8 39 05 00 00       	callq  405eee <_ZNSt6vectorI9key_valueSaIS0_EE9push_backERKS0_>
  4059b5:	48 8d 45 a0          	lea    -0x60(%rbp),%rax
  4059b9:	48 89 c7             	mov    %rax,%rdi
  4059bc:	e8 4f f7 ff ff       	callq  405110 <_ZNSt7__cxx1112basic_stringIcSt11char_traitsIcESaIcEE5clearEv@plt>
  4059c1:	48 8d 45 a0          	lea    -0x60(%rbp),%rax
  4059c5:	48 83 c0 20          	add    $0x20,%rax
  4059c9:	48 89 c7             	mov    %rax,%rdi
  4059cc:	e8 3f f7 ff ff       	callq  405110 <_ZNSt7__cxx1112basic_stringIcSt11char_traitsIcESaIcEE5clearEv@plt>
  4059d1:	e9 97 00 00 00       	jmpq   405a6d <_ZN7encoder5parseEPKh+0x169>
  4059d6:	48 8b 45 80          	mov    -0x80(%rbp),%rax
  4059da:	0f b6 00             	movzbl (%rax),%eax
  4059dd:	3c 40                	cmp    $0x40,%al
  4059df:	75 6d                	jne    405a4e <_ZN7encoder5parseEPKh+0x14a>
  4059e1:	48 83 45 80 01       	addq   $0x1,-0x80(%rbp)
  4059e6:	48 8b 45 80          	mov    -0x80(%rbp),%rax
  4059ea:	0f b6 00             	movzbl (%rax),%eax
  4059ed:	3c 41                	cmp    $0x41,%al
  4059ef:	75 13                	jne    405a04 <_ZN7encoder5parseEPKh+0x100>
  4059f1:	48 8b 45 88          	mov    -0x78(%rbp),%rax
  4059f5:	be 40 00 00 00       	mov    $0x40,%esi
  4059fa:	48 89 c7             	mov    %rax,%rdi
  4059fd:	e8 4e f9 ff ff       	callq  405350 <_ZNSt7__cxx1112basic_stringIcSt11char_traitsIcESaIcEEpLEc@plt>
  405a02:	eb 69                	jmp    405a6d <_ZN7encoder5parseEPKh+0x169>
  405a04:	48 8b 45 80          	mov    -0x80(%rbp),%rax
  405a08:	0f b6 00             	movzbl (%rax),%eax
  405a0b:	3c 53                	cmp    $0x53,%al
  405a0d:	75 13                	jne    405a22 <_ZN7encoder5parseEPKh+0x11e>
  405a0f:	48 8b 45 88          	mov    -0x78(%rbp),%rax
  405a13:	be 2f 00 00 00       	mov    $0x2f,%esi
  405a18:	48 89 c7             	mov    %rax,%rdi
  405a1b:	e8 30 f9 ff ff       	callq  405350 <_ZNSt7__cxx1112basic_stringIcSt11char_traitsIcESaIcEEpLEc@plt>
  405a20:	eb 4b                	jmp    405a6d <_ZN7encoder5parseEPKh+0x169>
  405a22:	48 8b 45 80          	mov    -0x80(%rbp),%rax
  405a26:	0f b6 00             	movzbl (%rax),%eax
  405a29:	3c 3d                	cmp    $0x3d,%al
  405a2b:	75 40                	jne    405a6d <_ZN7encoder5parseEPKh+0x169>
  405a2d:	48 8b 55 88          	mov    -0x78(%rbp),%rdx
  405a31:	48 8d 45 a0          	lea    -0x60(%rbp),%rax
  405a35:	48 89 d6             	mov    %rdx,%rsi
  405a38:	48 89 c7             	mov    %rax,%rdi
  405a3b:	e8 20 f8 ff ff       	callq  405260 <_ZNSt7__cxx1112basic_stringIcSt11char_traitsIcESaIcEEaSERKS4_@plt>
  405a40:	48 8b 45 88          	mov    -0x78(%rbp),%rax
  405a44:	48 89 c7             	mov    %rax,%rdi
  405a47:	e8 c4 f6 ff ff       	callq  405110 <_ZNSt7__cxx1112basic_stringIcSt11char_traitsIcESaIcEE5clearEv@plt>
  405a4c:	eb 1f                	jmp    405a6d <_ZN7encoder5parseEPKh+0x169>
  405a4e:	48 8b 45 80          	mov    -0x80(%rbp),%rax
  405a52:	0f b6 00             	movzbl (%rax),%eax
  405a55:	88 45 9f             	mov    %al,-0x61(%rbp)
  405a58:	0f be 55 9f          	movsbl -0x61(%rbp),%edx
  405a5c:	48 8b 45 88          	mov    -0x78(%rbp),%rax
  405a60:	be 01 00 00 00       	mov    $0x1,%esi
  405a65:	48 89 c7             	mov    %rax,%rdi
  405a68:	e8 53 f7 ff ff       	callq  4051c0 <_ZNSt7__cxx1112basic_stringIcSt11char_traitsIcESaIcEE6appendEmc@plt>
  405a6d:	48 83 45 80 01       	addq   $0x1,-0x80(%rbp)
  405a72:	e9 ea fe ff ff       	jmpq   405961 <_ZN7encoder5parseEPKh+0x5d>
  405a77:	48 8b 45 80          	mov    -0x80(%rbp),%rax
  405a7b:	0f b6 00             	movzbl (%rax),%eax
  405a7e:	84 c0                	test   %al,%al
  405a80:	75 49                	jne    405acb <_ZN7encoder5parseEPKh+0x1c7>
  405a82:	48 8b 45 80          	mov    -0x80(%rbp),%rax
  405a86:	48 83 e8 01          	sub    $0x1,%rax
  405a8a:	0f b6 00             	movzbl (%rax),%eax
  405a8d:	3c 2f                	cmp    $0x2f,%al
  405a8f:	74 3a                	je     405acb <_ZN7encoder5parseEPKh+0x1c7>
  405a91:	48 8b 45 88          	mov    -0x78(%rbp),%rax
  405a95:	48 8d 55 a0          	lea    -0x60(%rbp),%rdx
  405a99:	48 83 c2 20          	add    $0x20,%rdx
  405a9d:	48 89 c6             	mov    %rax,%rsi
  405aa0:	48 89 d7             	mov    %rdx,%rdi
  405aa3:	e8 b8 f7 ff ff       	callq  405260 <_ZNSt7__cxx1112basic_stringIcSt11char_traitsIcESaIcEEaSERKS4_@plt>
  405aa8:	48 8b 45 88          	mov    -0x78(%rbp),%rax
  405aac:	48 89 c7             	mov    %rax,%rdi
  405aaf:	e8 5c f6 ff ff       	callq  405110 <_ZNSt7__cxx1112basic_stringIcSt11char_traitsIcESaIcEE5clearEv@plt>
  405ab4:	48 8b 45 88          	mov    -0x78(%rbp),%rax
  405ab8:	48 8d 50 20          	lea    0x20(%rax),%rdx
  405abc:	48 8d 45 a0          	lea    -0x60(%rbp),%rax
  405ac0:	48 89 c6             	mov    %rax,%rsi
  405ac3:	48 89 d7             	mov    %rdx,%rdi
  405ac6:	e8 23 04 00 00       	callq  405eee <_ZNSt6vectorI9key_valueSaIS0_EE9push_backERKS0_>
  405acb:	48 8d 45 a0          	lea    -0x60(%rbp),%rax
  405acf:	48 89 c7             	mov    %rax,%rdi
  405ad2:	e8 23 03 00 00       	callq  405dfa <_ZN9key_valueD1Ev>
  405ad7:	eb 1a                	jmp    405af3 <_ZN7encoder5parseEPKh+0x1ef>
  405ad9:	48 89 c3             	mov    %rax,%rbx
  405adc:	48 8d 45 a0          	lea    -0x60(%rbp),%rax
  405ae0:	48 89 c7             	mov    %rax,%rdi
  405ae3:	e8 12 03 00 00       	callq  405dfa <_ZN9key_valueD1Ev>
  405ae8:	48 89 d8             	mov    %rbx,%rax
  405aeb:	48 89 c7             	mov    %rax,%rdi
  405aee:	e8 4d f8 ff ff       	callq  405340 <_Unwind_Resume@plt>
  405af3:	48 8b 4d e8          	mov    -0x18(%rbp),%rcx
  405af7:	64 48 33 0c 25 28 00 	xor    %fs:0x28,%rcx
  405afe:	00 00 
  405b00:	74 05                	je     405b07 <_ZN7encoder5parseEPKh+0x203>
  405b02:	e8 f9 f6 ff ff       	callq  405200 <__stack_chk_fail@plt>
  405b07:	48 83 c4 78          	add    $0x78,%rsp
  405b0b:	5b                   	pop    %rbx
  405b0c:	5d                   	pop    %rbp
  405b0d:	c3                   	retq   

0000000000405b0e <_ZN7encoder12get_rev_typeEPhPKc>:
  405b0e:	55                   	push   %rbp
  405b0f:	48 89 e5             	mov    %rsp,%rbp
  405b12:	53                   	push   %rbx
  405b13:	48 81 ec 88 00 00 00 	sub    $0x88,%rsp
  405b1a:	48 89 7d 88          	mov    %rdi,-0x78(%rbp)
  405b1e:	48 89 75 80          	mov    %rsi,-0x80(%rbp)
  405b22:	48 89 95 78 ff ff ff 	mov    %rdx,-0x88(%rbp)
  405b29:	64 48 8b 04 25 28 00 	mov    %fs:0x28,%rax
  405b30:	00 00 
  405b32:	48 89 45 e8          	mov    %rax,-0x18(%rbp)
  405b36:	31 c0                	xor    %eax,%eax
  405b38:	48 8b 45 80          	mov    -0x80(%rbp),%rax
  405b3c:	48 8d 50 08          	lea    0x8(%rax),%rdx
  405b40:	48 8b 45 88          	mov    -0x78(%rbp),%rax
  405b44:	48 89 d6             	mov    %rdx,%rsi
  405b47:	48 89 c7             	mov    %rax,%rdi
  405b4a:	e8 b5 fd ff ff       	callq  405904 <_ZN7encoder5parseEPKh>
  405b4f:	89 45 9c             	mov    %eax,-0x64(%rbp)
  405b52:	83 7d 9c ff          	cmpl   $0xffffffff,-0x64(%rbp)
  405b56:	75 0a                	jne    405b62 <_ZN7encoder12get_rev_typeEPhPKc+0x54>
  405b58:	bb 03 00 00 00       	mov    $0x3,%ebx
  405b5d:	e9 8e 00 00 00       	jmpq   405bf0 <_ZN7encoder12get_rev_typeEPhPKc+0xe2>
  405b62:	48 8d 45 a0          	lea    -0x60(%rbp),%rax
  405b66:	48 89 c7             	mov    %rax,%rdi
  405b69:	e8 b2 f5 ff ff       	callq  405120 <_ZNSt7__cxx1112basic_stringIcSt11char_traitsIcESaIcEEC1Ev@plt>
  405b6e:	48 8d 45 c0          	lea    -0x40(%rbp),%rax
  405b72:	48 8b 95 78 ff ff ff 	mov    -0x88(%rbp),%rdx
  405b79:	48 8b 4d 88          	mov    -0x78(%rbp),%rcx
  405b7d:	48 89 ce             	mov    %rcx,%rsi
  405b80:	48 89 c7             	mov    %rax,%rdi
  405b83:	e8 b6 00 00 00       	callq  405c3e <_ZN7encoder13fine_keyvalueB5cxx11EPKc>
  405b88:	48 8d 55 c0          	lea    -0x40(%rbp),%rdx
  405b8c:	48 8d 45 a0          	lea    -0x60(%rbp),%rax
  405b90:	48 89 d6             	mov    %rdx,%rsi
  405b93:	48 89 c7             	mov    %rax,%rdi
  405b96:	e8 c5 f6 ff ff       	callq  405260 <_ZNSt7__cxx1112basic_stringIcSt11char_traitsIcESaIcEEaSERKS4_@plt>
  405b9b:	48 8d 45 c0          	lea    -0x40(%rbp),%rax
  405b9f:	48 89 c7             	mov    %rax,%rdi
  405ba2:	e8 a9 f5 ff ff       	callq  405150 <_ZNSt7__cxx1112basic_stringIcSt11char_traitsIcESaIcEED1Ev@plt>
  405ba7:	48 8d 45 a0          	lea    -0x60(%rbp),%rax
  405bab:	be b2 9a 40 00       	mov    $0x409ab2,%esi
  405bb0:	48 89 c7             	mov    %rax,%rdi
  405bb3:	e8 b1 03 00 00       	callq  405f69 <_ZSteqIcSt11char_traitsIcESaIcEEbRKNSt7__cxx1112basic_stringIT_T0_T1_EEPKS5_>
  405bb8:	84 c0                	test   %al,%al
  405bba:	74 09                	je     405bc5 <_ZN7encoder12get_rev_typeEPhPKc+0xb7>
  405bbc:	c7 45 98 01 00 00 00 	movl   $0x1,-0x68(%rbp)
  405bc3:	eb 1c                	jmp    405be1 <_ZN7encoder12get_rev_typeEPhPKc+0xd3>
  405bc5:	48 8d 45 a0          	lea    -0x60(%rbp),%rax
  405bc9:	be ba 9a 40 00       	mov    $0x409aba,%esi
  405bce:	48 89 c7             	mov    %rax,%rdi
  405bd1:	e8 93 03 00 00       	callq  405f69 <_ZSteqIcSt11char_traitsIcESaIcEEbRKNSt7__cxx1112basic_stringIT_T0_T1_EEPKS5_>
  405bd6:	84 c0                	test   %al,%al
  405bd8:	74 07                	je     405be1 <_ZN7encoder12get_rev_typeEPhPKc+0xd3>
  405bda:	c7 45 98 02 00 00 00 	movl   $0x2,-0x68(%rbp)
  405be1:	8b 5d 98             	mov    -0x68(%rbp),%ebx
  405be4:	48 8d 45 a0          	lea    -0x60(%rbp),%rax
  405be8:	48 89 c7             	mov    %rax,%rdi
  405beb:	e8 60 f5 ff ff       	callq  405150 <_ZNSt7__cxx1112basic_stringIcSt11char_traitsIcESaIcEED1Ev@plt>
  405bf0:	89 d8                	mov    %ebx,%eax
  405bf2:	48 8b 4d e8          	mov    -0x18(%rbp),%rcx
  405bf6:	64 48 33 0c 25 28 00 	xor    %fs:0x28,%rcx
  405bfd:	00 00 
  405bff:	74 32                	je     405c33 <_ZN7encoder12get_rev_typeEPhPKc+0x125>
  405c01:	eb 2b                	jmp    405c2e <_ZN7encoder12get_rev_typeEPhPKc+0x120>
  405c03:	48 89 c3             	mov    %rax,%rbx
  405c06:	48 8d 45 c0          	lea    -0x40(%rbp),%rax
  405c0a:	48 89 c7             	mov    %rax,%rdi
  405c0d:	e8 3e f5 ff ff       	callq  405150 <_ZNSt7__cxx1112basic_stringIcSt11char_traitsIcESaIcEED1Ev@plt>
  405c12:	eb 03                	jmp    405c17 <_ZN7encoder12get_rev_typeEPhPKc+0x109>
  405c14:	48 89 c3             	mov    %rax,%rbx
  405c17:	48 8d 45 a0          	lea    -0x60(%rbp),%rax
  405c1b:	48 89 c7             	mov    %rax,%rdi
  405c1e:	e8 2d f5 ff ff       	callq  405150 <_ZNSt7__cxx1112basic_stringIcSt11char_traitsIcESaIcEED1Ev@plt>
  405c23:	48 89 d8             	mov    %rbx,%rax
  405c26:	48 89 c7             	mov    %rax,%rdi
  405c29:	e8 12 f7 ff ff       	callq  405340 <_Unwind_Resume@plt>
  405c2e:	e8 cd f5 ff ff       	callq  405200 <__stack_chk_fail@plt>
  405c33:	48 81 c4 88 00 00 00 	add    $0x88,%rsp
  405c3a:	5b                   	pop    %rbx
  405c3b:	5d                   	pop    %rbp
  405c3c:	c3                   	retq   
  405c3d:	90                   	nop

0000000000405c3e <_ZN7encoder13fine_keyvalueB5cxx11EPKc>:
  405c3e:	55                   	push   %rbp
  405c3f:	48 89 e5             	mov    %rsp,%rbp
  405c42:	53                   	push   %rbx
  405c43:	48 83 ec 38          	sub    $0x38,%rsp
  405c47:	48 89 7d d8          	mov    %rdi,-0x28(%rbp)
  405c4b:	48 89 75 d0          	mov    %rsi,-0x30(%rbp)
  405c4f:	48 89 55 c8          	mov    %rdx,-0x38(%rbp)
  405c53:	64 48 8b 04 25 28 00 	mov    %fs:0x28,%rax
  405c5a:	00 00 
  405c5c:	48 89 45 e8          	mov    %rax,-0x18(%rbp)
  405c60:	31 c0                	xor    %eax,%eax
  405c62:	48 8b 45 d8          	mov    -0x28(%rbp),%rax
  405c66:	48 89 c7             	mov    %rax,%rdi
  405c69:	e8 b2 f4 ff ff       	callq  405120 <_ZNSt7__cxx1112basic_stringIcSt11char_traitsIcESaIcEEC1Ev@plt>
  405c6e:	c7 45 e4 00 00 00 00 	movl   $0x0,-0x1c(%rbp)
  405c75:	8b 45 e4             	mov    -0x1c(%rbp),%eax
  405c78:	48 63 d8             	movslq %eax,%rbx
  405c7b:	48 8b 45 d0          	mov    -0x30(%rbp),%rax
  405c7f:	48 83 c0 20          	add    $0x20,%rax
  405c83:	48 89 c7             	mov    %rax,%rdi
  405c86:	e8 09 03 00 00       	callq  405f94 <_ZNKSt6vectorI9key_valueSaIS0_EE4sizeEv>
  405c8b:	48 39 c3             	cmp    %rax,%rbx
  405c8e:	0f 92 c0             	setb   %al
  405c91:	84 c0                	test   %al,%al
  405c93:	0f 84 80 00 00 00    	je     405d19 <_ZN7encoder13fine_keyvalueB5cxx11EPKc+0xdb>
  405c99:	8b 45 e4             	mov    -0x1c(%rbp),%eax
  405c9c:	48 98                	cltq   
  405c9e:	48 8b 55 d0          	mov    -0x30(%rbp),%rdx
  405ca2:	48 83 c2 20          	add    $0x20,%rdx
  405ca6:	48 89 c6             	mov    %rax,%rsi
  405ca9:	48 89 d7             	mov    %rdx,%rdi
  405cac:	e8 09 03 00 00       	callq  405fba <_ZNSt6vectorI9key_valueSaIS0_EEixEm>
  405cb1:	48 89 c2             	mov    %rax,%rdx
  405cb4:	48 8b 45 c8          	mov    -0x38(%rbp),%rax
  405cb8:	48 89 c6             	mov    %rax,%rsi
  405cbb:	48 89 d7             	mov    %rdx,%rdi
  405cbe:	e8 a6 02 00 00       	callq  405f69 <_ZSteqIcSt11char_traitsIcESaIcEEbRKNSt7__cxx1112basic_stringIT_T0_T1_EEPKS5_>
  405cc3:	84 c0                	test   %al,%al
  405cc5:	74 2d                	je     405cf4 <_ZN7encoder13fine_keyvalueB5cxx11EPKc+0xb6>
  405cc7:	8b 45 e4             	mov    -0x1c(%rbp),%eax
  405cca:	48 98                	cltq   
  405ccc:	48 8b 55 d0          	mov    -0x30(%rbp),%rdx
  405cd0:	48 83 c2 20          	add    $0x20,%rdx
  405cd4:	48 89 c6             	mov    %rax,%rsi
  405cd7:	48 89 d7             	mov    %rdx,%rdi
  405cda:	e8 db 02 00 00       	callq  405fba <_ZNSt6vectorI9key_valueSaIS0_EEixEm>
  405cdf:	48 8d 50 20          	lea    0x20(%rax),%rdx
  405ce3:	48 8b 45 d8          	mov    -0x28(%rbp),%rax
  405ce7:	48 89 d6             	mov    %rdx,%rsi
  405cea:	48 89 c7             	mov    %rax,%rdi
  405ced:	e8 6e f5 ff ff       	callq  405260 <_ZNSt7__cxx1112basic_stringIcSt11char_traitsIcESaIcEEaSERKS4_@plt>
  405cf2:	eb 09                	jmp    405cfd <_ZN7encoder13fine_keyvalueB5cxx11EPKc+0xbf>
  405cf4:	83 45 e4 01          	addl   $0x1,-0x1c(%rbp)
  405cf8:	e9 78 ff ff ff       	jmpq   405c75 <_ZN7encoder13fine_keyvalueB5cxx11EPKc+0x37>
  405cfd:	eb 1a                	jmp    405d19 <_ZN7encoder13fine_keyvalueB5cxx11EPKc+0xdb>
  405cff:	48 89 c3             	mov    %rax,%rbx
  405d02:	48 8b 45 d8          	mov    -0x28(%rbp),%rax
  405d06:	48 89 c7             	mov    %rax,%rdi
  405d09:	e8 42 f4 ff ff       	callq  405150 <_ZNSt7__cxx1112basic_stringIcSt11char_traitsIcESaIcEED1Ev@plt>
  405d0e:	48 89 d8             	mov    %rbx,%rax
  405d11:	48 89 c7             	mov    %rax,%rdi
  405d14:	e8 27 f6 ff ff       	callq  405340 <_Unwind_Resume@plt>
  405d19:	90                   	nop
  405d1a:	48 8b 45 d8          	mov    -0x28(%rbp),%rax
  405d1e:	48 8b 4d e8          	mov    -0x18(%rbp),%rcx
  405d22:	64 48 33 0c 25 28 00 	xor    %fs:0x28,%rcx
  405d29:	00 00 
  405d2b:	74 05                	je     405d32 <_ZN7encoder13fine_keyvalueB5cxx11EPKc+0xf4>
  405d2d:	e8 ce f4 ff ff       	callq  405200 <__stack_chk_fail@plt>
  405d32:	48 83 c4 38          	add    $0x38,%rsp
  405d36:	5b                   	pop    %rbx
  405d37:	5d                   	pop    %rbp
  405d38:	c3                   	retq   

0000000000405d39 <_Z41__static_initialization_and_destruction_0ii>:
  405d39:	55                   	push   %rbp
  405d3a:	48 89 e5             	mov    %rsp,%rbp
  405d3d:	48 83 ec 10          	sub    $0x10,%rsp
  405d41:	89 7d fc             	mov    %edi,-0x4(%rbp)
  405d44:	89 75 f8             	mov    %esi,-0x8(%rbp)
  405d47:	83 7d fc 01          	cmpl   $0x1,-0x4(%rbp)
  405d4b:	75 27                	jne    405d74 <_Z41__static_initialization_and_destruction_0ii+0x3b>
  405d4d:	81 7d f8 ff ff 00 00 	cmpl   $0xffff,-0x8(%rbp)
  405d54:	75 1e                	jne    405d74 <_Z41__static_initialization_and_destruction_0ii+0x3b>
  405d56:	bf 31 c3 60 00       	mov    $0x60c331,%edi
  405d5b:	e8 30 f3 ff ff       	callq  405090 <_ZNSt8ios_base4InitC1Ev@plt>
  405d60:	ba 00 c2 60 00       	mov    $0x60c200,%edx
  405d65:	be 31 c3 60 00       	mov    $0x60c331,%esi
  405d6a:	bf f0 50 40 00       	mov    $0x4050f0,%edi
  405d6f:	e8 6c f3 ff ff       	callq  4050e0 <__cxa_atexit@plt>
  405d74:	90                   	nop
  405d75:	c9                   	leaveq 
  405d76:	c3                   	retq   

0000000000405d77 <_GLOBAL__sub_I__ZN7encoderC2Ev>:
  405d77:	55                   	push   %rbp
  405d78:	48 89 e5             	mov    %rsp,%rbp
  405d7b:	be ff ff 00 00       	mov    $0xffff,%esi
  405d80:	bf 01 00 00 00       	mov    $0x1,%edi
  405d85:	e8 af ff ff ff       	callq  405d39 <_Z41__static_initialization_and_destruction_0ii>
  405d8a:	5d                   	pop    %rbp
  405d8b:	c3                   	retq   

0000000000405d8c <_ZnwmPv>:
  405d8c:	55                   	push   %rbp
  405d8d:	48 89 e5             	mov    %rsp,%rbp
  405d90:	48 89 7d f8          	mov    %rdi,-0x8(%rbp)
  405d94:	48 89 75 f0          	mov    %rsi,-0x10(%rbp)
  405d98:	48 8b 45 f0          	mov    -0x10(%rbp),%rax
  405d9c:	5d                   	pop    %rbp
  405d9d:	c3                   	retq   

0000000000405d9e <_ZdlPvS_>:
  405d9e:	55                   	push   %rbp
  405d9f:	48 89 e5             	mov    %rsp,%rbp
  405da2:	48 89 7d f8          	mov    %rdi,-0x8(%rbp)
  405da6:	48 89 75 f0          	mov    %rsi,-0x10(%rbp)
  405daa:	90                   	nop
  405dab:	5d                   	pop    %rbp
  405dac:	c3                   	retq   
  405dad:	90                   	nop

0000000000405dae <_ZN9key_valueC1Ev>:
  405dae:	55                   	push   %rbp
  405daf:	48 89 e5             	mov    %rsp,%rbp
  405db2:	53                   	push   %rbx
  405db3:	48 83 ec 18          	sub    $0x18,%rsp
  405db7:	48 89 7d e8          	mov    %rdi,-0x18(%rbp)
  405dbb:	48 8b 45 e8          	mov    -0x18(%rbp),%rax
  405dbf:	48 89 c7             	mov    %rax,%rdi
  405dc2:	e8 59 f3 ff ff       	callq  405120 <_ZNSt7__cxx1112basic_stringIcSt11char_traitsIcESaIcEEC1Ev@plt>
  405dc7:	48 8b 45 e8          	mov    -0x18(%rbp),%rax
  405dcb:	48 83 c0 20          	add    $0x20,%rax
  405dcf:	48 89 c7             	mov    %rax,%rdi
  405dd2:	e8 49 f3 ff ff       	callq  405120 <_ZNSt7__cxx1112basic_stringIcSt11char_traitsIcESaIcEEC1Ev@plt>
  405dd7:	eb 1a                	jmp    405df3 <_ZN9key_valueC1Ev+0x45>
  405dd9:	48 89 c3             	mov    %rax,%rbx
  405ddc:	48 8b 45 e8          	mov    -0x18(%rbp),%rax
  405de0:	48 89 c7             	mov    %rax,%rdi
  405de3:	e8 68 f3 ff ff       	callq  405150 <_ZNSt7__cxx1112basic_stringIcSt11char_traitsIcESaIcEED1Ev@plt>
  405de8:	48 89 d8             	mov    %rbx,%rax
  405deb:	48 89 c7             	mov    %rax,%rdi
  405dee:	e8 4d f5 ff ff       	callq  405340 <_Unwind_Resume@plt>
  405df3:	48 83 c4 18          	add    $0x18,%rsp
  405df7:	5b                   	pop    %rbx
  405df8:	5d                   	pop    %rbp
  405df9:	c3                   	retq   

0000000000405dfa <_ZN9key_valueD1Ev>:
  405dfa:	55                   	push   %rbp
  405dfb:	48 89 e5             	mov    %rsp,%rbp
  405dfe:	53                   	push   %rbx
  405dff:	48 83 ec 18          	sub    $0x18,%rsp
  405e03:	48 89 7d e8          	mov    %rdi,-0x18(%rbp)
  405e07:	48 8b 45 e8          	mov    -0x18(%rbp),%rax
  405e0b:	48 83 c0 20          	add    $0x20,%rax
  405e0f:	48 89 c7             	mov    %rax,%rdi
  405e12:	e8 39 f3 ff ff       	callq  405150 <_ZNSt7__cxx1112basic_stringIcSt11char_traitsIcESaIcEED1Ev@plt>
  405e17:	48 8b 45 e8          	mov    -0x18(%rbp),%rax
  405e1b:	48 89 c7             	mov    %rax,%rdi
  405e1e:	e8 2d f3 ff ff       	callq  405150 <_ZNSt7__cxx1112basic_stringIcSt11char_traitsIcESaIcEED1Ev@plt>
  405e23:	eb 1a                	jmp    405e3f <_ZN9key_valueD1Ev+0x45>
  405e25:	48 89 c3             	mov    %rax,%rbx
  405e28:	48 8b 45 e8          	mov    -0x18(%rbp),%rax
  405e2c:	48 89 c7             	mov    %rax,%rdi
  405e2f:	e8 1c f3 ff ff       	callq  405150 <_ZNSt7__cxx1112basic_stringIcSt11char_traitsIcESaIcEED1Ev@plt>
  405e34:	48 89 d8             	mov    %rbx,%rax
  405e37:	48 89 c7             	mov    %rax,%rdi
  405e3a:	e8 01 f5 ff ff       	callq  405340 <_Unwind_Resume@plt>
  405e3f:	48 83 c4 18          	add    $0x18,%rsp
  405e43:	5b                   	pop    %rbx
  405e44:	5d                   	pop    %rbp
  405e45:	c3                   	retq   

0000000000405e46 <_ZNSt6vectorI9key_valueSaIS0_EEC1Ev>:
  405e46:	55                   	push   %rbp
  405e47:	48 89 e5             	mov    %rsp,%rbp
  405e4a:	48 83 ec 10          	sub    $0x10,%rsp
  405e4e:	48 89 7d f8          	mov    %rdi,-0x8(%rbp)
  405e52:	48 8b 45 f8          	mov    -0x8(%rbp),%rax
  405e56:	48 89 c7             	mov    %rax,%rdi
  405e59:	e8 98 01 00 00       	callq  405ff6 <_ZNSt12_Vector_baseI9key_valueSaIS0_EEC1Ev>
  405e5e:	90                   	nop
  405e5f:	c9                   	leaveq 
  405e60:	c3                   	retq   
  405e61:	90                   	nop

0000000000405e62 <_ZNSt6vectorI9key_valueSaIS0_EED1Ev>:
  405e62:	55                   	push   %rbp
  405e63:	48 89 e5             	mov    %rsp,%rbp
  405e66:	53                   	push   %rbx
  405e67:	48 83 ec 18          	sub    $0x18,%rsp
  405e6b:	48 89 7d e8          	mov    %rdi,-0x18(%rbp)
  405e6f:	48 8b 45 e8          	mov    -0x18(%rbp),%rax
  405e73:	48 89 c7             	mov    %rax,%rdi
  405e76:	e8 09 02 00 00       	callq  406084 <_ZNSt12_Vector_baseI9key_valueSaIS0_EE19_M_get_Tp_allocatorEv>
  405e7b:	48 89 c2             	mov    %rax,%rdx
  405e7e:	48 8b 45 e8          	mov    -0x18(%rbp),%rax
  405e82:	48 8b 48 08          	mov    0x8(%rax),%rcx
  405e86:	48 8b 45 e8          	mov    -0x18(%rbp),%rax
  405e8a:	48 8b 00             	mov    (%rax),%rax
  405e8d:	48 89 ce             	mov    %rcx,%rsi
  405e90:	48 89 c7             	mov    %rax,%rdi
  405e93:	e8 fa 01 00 00       	callq  406092 <_ZSt8_DestroyIP9key_valueS0_EvT_S2_RSaIT0_E>
  405e98:	48 8b 45 e8          	mov    -0x18(%rbp),%rax
  405e9c:	48 89 c7             	mov    %rax,%rdi
  405e9f:	e8 6e 01 00 00       	callq  406012 <_ZNSt12_Vector_baseI9key_valueSaIS0_EED1Ev>
  405ea4:	eb 1a                	jmp    405ec0 <_ZNSt6vectorI9key_valueSaIS0_EED1Ev+0x5e>
  405ea6:	48 89 c3             	mov    %rax,%rbx
  405ea9:	48 8b 45 e8          	mov    -0x18(%rbp),%rax
  405ead:	48 89 c7             	mov    %rax,%rdi
  405eb0:	e8 5d 01 00 00       	callq  406012 <_ZNSt12_Vector_baseI9key_valueSaIS0_EED1Ev>
  405eb5:	48 89 d8             	mov    %rbx,%rax
  405eb8:	48 89 c7             	mov    %rax,%rdi
  405ebb:	e8 80 f4 ff ff       	callq  405340 <_Unwind_Resume@plt>
  405ec0:	48 83 c4 18          	add    $0x18,%rsp
  405ec4:	5b                   	pop    %rbx
  405ec5:	5d                   	pop    %rbp
  405ec6:	c3                   	retq   
  405ec7:	90                   	nop

0000000000405ec8 <_ZNSt6vectorI9key_valueSaIS0_EE5clearEv>:
  405ec8:	55                   	push   %rbp
  405ec9:	48 89 e5             	mov    %rsp,%rbp
  405ecc:	48 83 ec 10          	sub    $0x10,%rsp
  405ed0:	48 89 7d f8          	mov    %rdi,-0x8(%rbp)
  405ed4:	48 8b 45 f8          	mov    -0x8(%rbp),%rax
  405ed8:	48 8b 10             	mov    (%rax),%rdx
  405edb:	48 8b 45 f8          	mov    -0x8(%rbp),%rax
  405edf:	48 89 d6             	mov    %rdx,%rsi
  405ee2:	48 89 c7             	mov    %rax,%rdi
  405ee5:	e8 d2 01 00 00       	callq  4060bc <_ZNSt6vectorI9key_valueSaIS0_EE15_M_erase_at_endEPS0_>
  405eea:	90                   	nop
  405eeb:	c9                   	leaveq 
  405eec:	c3                   	retq   
  405eed:	90                   	nop

0000000000405eee <_ZNSt6vectorI9key_valueSaIS0_EE9push_backERKS0_>:
  405eee:	55                   	push   %rbp
  405eef:	48 89 e5             	mov    %rsp,%rbp
  405ef2:	48 83 ec 10          	sub    $0x10,%rsp
  405ef6:	48 89 7d f8          	mov    %rdi,-0x8(%rbp)
  405efa:	48 89 75 f0          	mov    %rsi,-0x10(%rbp)
  405efe:	48 8b 45 f8          	mov    -0x8(%rbp),%rax
  405f02:	48 8b 50 08          	mov    0x8(%rax),%rdx
  405f06:	48 8b 45 f8          	mov    -0x8(%rbp),%rax
  405f0a:	48 8b 40 10          	mov    0x10(%rax),%rax
  405f0e:	48 39 c2             	cmp    %rax,%rdx
  405f11:	74 31                	je     405f44 <_ZNSt6vectorI9key_valueSaIS0_EE9push_backERKS0_+0x56>
  405f13:	48 8b 45 f8          	mov    -0x8(%rbp),%rax
  405f17:	48 8b 48 08          	mov    0x8(%rax),%rcx
  405f1b:	48 8b 45 f8          	mov    -0x8(%rbp),%rax
  405f1f:	48 8b 55 f0          	mov    -0x10(%rbp),%rdx
  405f23:	48 89 ce             	mov    %rcx,%rsi
  405f26:	48 89 c7             	mov    %rax,%rdi
  405f29:	e8 d3 01 00 00       	callq  406101 <_ZN9__gnu_cxx14__alloc_traitsISaI9key_valueEE9constructIS1_EEvRS2_PS1_RKT_>
  405f2e:	48 8b 45 f8          	mov    -0x8(%rbp),%rax
  405f32:	48 8b 40 08          	mov    0x8(%rax),%rax
  405f36:	48 8d 50 40          	lea    0x40(%rax),%rdx
  405f3a:	48 8b 45 f8          	mov    -0x8(%rbp),%rax
  405f3e:	48 89 50 08          	mov    %rdx,0x8(%rax)
  405f42:	eb 22                	jmp    405f66 <_ZNSt6vectorI9key_valueSaIS0_EE9push_backERKS0_+0x78>
  405f44:	48 8b 45 f8          	mov    -0x8(%rbp),%rax
  405f48:	48 89 c7             	mov    %rax,%rdi
  405f4b:	e8 4c 06 00 00       	callq  40659c <_ZNSt6vectorI9key_valueSaIS0_EE3endEv>
  405f50:	48 89 c1             	mov    %rax,%rcx
  405f53:	48 8b 55 f0          	mov    -0x10(%rbp),%rdx
  405f57:	48 8b 45 f8          	mov    -0x8(%rbp),%rax
  405f5b:	48 89 ce             	mov    %rcx,%rsi
  405f5e:	48 89 c7             	mov    %rax,%rdi
  405f61:	e8 70 02 00 00       	callq  4061d6 <_ZNSt6vectorI9key_valueSaIS0_EE13_M_insert_auxEN9__gnu_cxx17__normal_iteratorIPS0_S2_EERKS0_>
  405f66:	90                   	nop
  405f67:	c9                   	leaveq 
  405f68:	c3                   	retq   

0000000000405f69 <_ZSteqIcSt11char_traitsIcESaIcEEbRKNSt7__cxx1112basic_stringIT_T0_T1_EEPKS5_>:
  405f69:	55                   	push   %rbp
  405f6a:	48 89 e5             	mov    %rsp,%rbp
  405f6d:	48 83 ec 10          	sub    $0x10,%rsp
  405f71:	48 89 7d f8          	mov    %rdi,-0x8(%rbp)
  405f75:	48 89 75 f0          	mov    %rsi,-0x10(%rbp)
  405f79:	48 8b 55 f0          	mov    -0x10(%rbp),%rdx
  405f7d:	48 8b 45 f8          	mov    -0x8(%rbp),%rax
  405f81:	48 89 d6             	mov    %rdx,%rsi
  405f84:	48 89 c7             	mov    %rax,%rdi
  405f87:	e8 94 f2 ff ff       	callq  405220 <_ZNKSt7__cxx1112basic_stringIcSt11char_traitsIcESaIcEE7compareEPKc@plt>
  405f8c:	85 c0                	test   %eax,%eax
  405f8e:	0f 94 c0             	sete   %al
  405f91:	c9                   	leaveq 
  405f92:	c3                   	retq   
  405f93:	90                   	nop

0000000000405f94 <_ZNKSt6vectorI9key_valueSaIS0_EE4sizeEv>:
  405f94:	55                   	push   %rbp
  405f95:	48 89 e5             	mov    %rsp,%rbp
  405f98:	48 89 7d f8          	mov    %rdi,-0x8(%rbp)
  405f9c:	48 8b 45 f8          	mov    -0x8(%rbp),%rax
  405fa0:	48 8b 40 08          	mov    0x8(%rax),%rax
  405fa4:	48 89 c2             	mov    %rax,%rdx
  405fa7:	48 8b 45 f8          	mov    -0x8(%rbp),%rax
  405fab:	48 8b 00             	mov    (%rax),%rax
  405fae:	48 29 c2             	sub    %rax,%rdx
  405fb1:	48 89 d0             	mov    %rdx,%rax
  405fb4:	48 c1 f8 06          	sar    $0x6,%rax
  405fb8:	5d                   	pop    %rbp
  405fb9:	c3                   	retq   

0000000000405fba <_ZNSt6vectorI9key_valueSaIS0_EEixEm>:
  405fba:	55                   	push   %rbp
  405fbb:	48 89 e5             	mov    %rsp,%rbp
  405fbe:	48 89 7d f8          	mov    %rdi,-0x8(%rbp)
  405fc2:	48 89 75 f0          	mov    %rsi,-0x10(%rbp)
  405fc6:	48 8b 45 f8          	mov    -0x8(%rbp),%rax
  405fca:	48 8b 00             	mov    (%rax),%rax
  405fcd:	48 8b 55 f0          	mov    -0x10(%rbp),%rdx
  405fd1:	48 c1 e2 06          	shl    $0x6,%rdx
  405fd5:	48 01 d0             	add    %rdx,%rax
  405fd8:	5d                   	pop    %rbp
  405fd9:	c3                   	retq   

0000000000405fda <_ZNSt12_Vector_baseI9key_valueSaIS0_EE12_Vector_implD1Ev>:
  405fda:	55                   	push   %rbp
  405fdb:	48 89 e5             	mov    %rsp,%rbp
  405fde:	48 83 ec 10          	sub    $0x10,%rsp
  405fe2:	48 89 7d f8          	mov    %rdi,-0x8(%rbp)
  405fe6:	48 8b 45 f8          	mov    -0x8(%rbp),%rax
  405fea:	48 89 c7             	mov    %rax,%rdi
  405fed:	e8 34 06 00 00       	callq  406626 <_ZNSaI9key_valueED1Ev>
  405ff2:	90                   	nop
  405ff3:	c9                   	leaveq 
  405ff4:	c3                   	retq   
  405ff5:	90                   	nop

0000000000405ff6 <_ZNSt12_Vector_baseI9key_valueSaIS0_EEC1Ev>:
  405ff6:	55                   	push   %rbp
  405ff7:	48 89 e5             	mov    %rsp,%rbp
  405ffa:	48 83 ec 10          	sub    $0x10,%rsp
  405ffe:	48 89 7d f8          	mov    %rdi,-0x8(%rbp)
  406002:	48 8b 45 f8          	mov    -0x8(%rbp),%rax
  406006:	48 89 c7             	mov    %rax,%rdi
  406009:	e8 da 05 00 00       	callq  4065e8 <_ZNSt12_Vector_baseI9key_valueSaIS0_EE12_Vector_implC1Ev>
  40600e:	90                   	nop
  40600f:	c9                   	leaveq 
  406010:	c3                   	retq   
  406011:	90                   	nop

0000000000406012 <_ZNSt12_Vector_baseI9key_valueSaIS0_EED1Ev>:
  406012:	55                   	push   %rbp
  406013:	48 89 e5             	mov    %rsp,%rbp
  406016:	53                   	push   %rbx
  406017:	48 83 ec 18          	sub    $0x18,%rsp
  40601b:	48 89 7d e8          	mov    %rdi,-0x18(%rbp)
  40601f:	48 8b 45 e8          	mov    -0x18(%rbp),%rax
  406023:	48 8b 40 10          	mov    0x10(%rax),%rax
  406027:	48 89 c2             	mov    %rax,%rdx
  40602a:	48 8b 45 e8          	mov    -0x18(%rbp),%rax
  40602e:	48 8b 00             	mov    (%rax),%rax
  406031:	48 29 c2             	sub    %rax,%rdx
  406034:	48 89 d0             	mov    %rdx,%rax
  406037:	48 c1 f8 06          	sar    $0x6,%rax
  40603b:	48 89 c2             	mov    %rax,%rdx
  40603e:	48 8b 45 e8          	mov    -0x18(%rbp),%rax
  406042:	48 8b 08             	mov    (%rax),%rcx
  406045:	48 8b 45 e8          	mov    -0x18(%rbp),%rax
  406049:	48 89 ce             	mov    %rcx,%rsi
  40604c:	48 89 c7             	mov    %rax,%rdi
  40604f:	e8 ee 05 00 00       	callq  406642 <_ZNSt12_Vector_baseI9key_valueSaIS0_EE13_M_deallocateEPS0_m>
  406054:	48 8b 45 e8          	mov    -0x18(%rbp),%rax
  406058:	48 89 c7             	mov    %rax,%rdi
  40605b:	e8 7a ff ff ff       	callq  405fda <_ZNSt12_Vector_baseI9key_valueSaIS0_EE12_Vector_implD1Ev>
  406060:	eb 1a                	jmp    40607c <_ZNSt12_Vector_baseI9key_valueSaIS0_EED1Ev+0x6a>
  406062:	48 89 c3             	mov    %rax,%rbx
  406065:	48 8b 45 e8          	mov    -0x18(%rbp),%rax
  406069:	48 89 c7             	mov    %rax,%rdi
  40606c:	e8 69 ff ff ff       	callq  405fda <_ZNSt12_Vector_baseI9key_valueSaIS0_EE12_Vector_implD1Ev>
  406071:	48 89 d8             	mov    %rbx,%rax
  406074:	48 89 c7             	mov    %rax,%rdi
  406077:	e8 c4 f2 ff ff       	callq  405340 <_Unwind_Resume@plt>
  40607c:	48 83 c4 18          	add    $0x18,%rsp
  406080:	5b                   	pop    %rbx
  406081:	5d                   	pop    %rbp
  406082:	c3                   	retq   
  406083:	90                   	nop

0000000000406084 <_ZNSt12_Vector_baseI9key_valueSaIS0_EE19_M_get_Tp_allocatorEv>:
  406084:	55                   	push   %rbp
  406085:	48 89 e5             	mov    %rsp,%rbp
  406088:	48 89 7d f8          	mov    %rdi,-0x8(%rbp)
  40608c:	48 8b 45 f8          	mov    -0x8(%rbp),%rax
  406090:	5d                   	pop    %rbp
  406091:	c3                   	retq   

0000000000406092 <_ZSt8_DestroyIP9key_valueS0_EvT_S2_RSaIT0_E>:
  406092:	55                   	push   %rbp
  406093:	48 89 e5             	mov    %rsp,%rbp
  406096:	48 83 ec 20          	sub    $0x20,%rsp
  40609a:	48 89 7d f8          	mov    %rdi,-0x8(%rbp)
  40609e:	48 89 75 f0          	mov    %rsi,-0x10(%rbp)
  4060a2:	48 89 55 e8          	mov    %rdx,-0x18(%rbp)
  4060a6:	48 8b 55 f0          	mov    -0x10(%rbp),%rdx
  4060aa:	48 8b 45 f8          	mov    -0x8(%rbp),%rax
  4060ae:	48 89 d6             	mov    %rdx,%rsi
  4060b1:	48 89 c7             	mov    %rax,%rdi
  4060b4:	e8 be 05 00 00       	callq  406677 <_ZSt8_DestroyIP9key_valueEvT_S2_>
  4060b9:	90                   	nop
  4060ba:	c9                   	leaveq 
  4060bb:	c3                   	retq   

00000000004060bc <_ZNSt6vectorI9key_valueSaIS0_EE15_M_erase_at_endEPS0_>:
  4060bc:	55                   	push   %rbp
  4060bd:	48 89 e5             	mov    %rsp,%rbp
  4060c0:	48 83 ec 10          	sub    $0x10,%rsp
  4060c4:	48 89 7d f8          	mov    %rdi,-0x8(%rbp)
  4060c8:	48 89 75 f0          	mov    %rsi,-0x10(%rbp)
  4060cc:	48 8b 45 f8          	mov    -0x8(%rbp),%rax
  4060d0:	48 89 c7             	mov    %rax,%rdi
  4060d3:	e8 ac ff ff ff       	callq  406084 <_ZNSt12_Vector_baseI9key_valueSaIS0_EE19_M_get_Tp_allocatorEv>
  4060d8:	48 89 c2             	mov    %rax,%rdx
  4060db:	48 8b 45 f8          	mov    -0x8(%rbp),%rax
  4060df:	48 8b 48 08          	mov    0x8(%rax),%rcx
  4060e3:	48 8b 45 f0          	mov    -0x10(%rbp),%rax
  4060e7:	48 89 ce             	mov    %rcx,%rsi
  4060ea:	48 89 c7             	mov    %rax,%rdi
  4060ed:	e8 a0 ff ff ff       	callq  406092 <_ZSt8_DestroyIP9key_valueS0_EvT_S2_RSaIT0_E>
  4060f2:	48 8b 45 f8          	mov    -0x8(%rbp),%rax
  4060f6:	48 8b 55 f0          	mov    -0x10(%rbp),%rdx
  4060fa:	48 89 50 08          	mov    %rdx,0x8(%rax)
  4060fe:	90                   	nop
  4060ff:	c9                   	leaveq 
  406100:	c3                   	retq   

0000000000406101 <_ZN9__gnu_cxx14__alloc_traitsISaI9key_valueEE9constructIS1_EEvRS2_PS1_RKT_>:
  406101:	55                   	push   %rbp
  406102:	48 89 e5             	mov    %rsp,%rbp
  406105:	48 83 ec 20          	sub    $0x20,%rsp
  406109:	48 89 7d f8          	mov    %rdi,-0x8(%rbp)
  40610d:	48 89 75 f0          	mov    %rsi,-0x10(%rbp)
  406111:	48 89 55 e8          	mov    %rdx,-0x18(%rbp)
  406115:	48 8b 55 e8          	mov    -0x18(%rbp),%rdx
  406119:	48 8b 4d f0          	mov    -0x10(%rbp),%rcx
  40611d:	48 8b 45 f8          	mov    -0x8(%rbp),%rax
  406121:	48 89 ce             	mov    %rcx,%rsi
  406124:	48 89 c7             	mov    %rax,%rdi
  406127:	e8 72 05 00 00       	callq  40669e <_ZN9__gnu_cxx13new_allocatorI9key_valueE9constructEPS1_RKS1_>
  40612c:	90                   	nop
  40612d:	c9                   	leaveq 
  40612e:	c3                   	retq   
  40612f:	90                   	nop

0000000000406130 <_ZN9key_valueC1ERKS_>:
  406130:	55                   	push   %rbp
  406131:	48 89 e5             	mov    %rsp,%rbp
  406134:	53                   	push   %rbx
  406135:	48 83 ec 18          	sub    $0x18,%rsp
  406139:	48 89 7d e8          	mov    %rdi,-0x18(%rbp)
  40613d:	48 89 75 e0          	mov    %rsi,-0x20(%rbp)
  406141:	48 8b 55 e0          	mov    -0x20(%rbp),%rdx
  406145:	48 8b 45 e8          	mov    -0x18(%rbp),%rax
  406149:	48 89 d6             	mov    %rdx,%rsi
  40614c:	48 89 c7             	mov    %rax,%rdi
  40614f:	e8 7c f1 ff ff       	callq  4052d0 <_ZNSt7__cxx1112basic_stringIcSt11char_traitsIcESaIcEEC1ERKS4_@plt>
  406154:	48 8b 45 e0          	mov    -0x20(%rbp),%rax
  406158:	48 8d 50 20          	lea    0x20(%rax),%rdx
  40615c:	48 8b 45 e8          	mov    -0x18(%rbp),%rax
  406160:	48 83 c0 20          	add    $0x20,%rax
  406164:	48 89 d6             	mov    %rdx,%rsi
  406167:	48 89 c7             	mov    %rax,%rdi
  40616a:	e8 61 f1 ff ff       	callq  4052d0 <_ZNSt7__cxx1112basic_stringIcSt11char_traitsIcESaIcEEC1ERKS4_@plt>
  40616f:	eb 1a                	jmp    40618b <_ZN9key_valueC1ERKS_+0x5b>
  406171:	48 89 c3             	mov    %rax,%rbx
  406174:	48 8b 45 e8          	mov    -0x18(%rbp),%rax
  406178:	48 89 c7             	mov    %rax,%rdi
  40617b:	e8 d0 ef ff ff       	callq  405150 <_ZNSt7__cxx1112basic_stringIcSt11char_traitsIcESaIcEED1Ev@plt>
  406180:	48 89 d8             	mov    %rbx,%rax
  406183:	48 89 c7             	mov    %rax,%rdi
  406186:	e8 b5 f1 ff ff       	callq  405340 <_Unwind_Resume@plt>
  40618b:	48 83 c4 18          	add    $0x18,%rsp
  40618f:	5b                   	pop    %rbx
  406190:	5d                   	pop    %rbp
  406191:	c3                   	retq   

0000000000406192 <_ZN9key_valueaSERKS_>:
  406192:	55                   	push   %rbp
  406193:	48 89 e5             	mov    %rsp,%rbp
  406196:	48 83 ec 10          	sub    $0x10,%rsp
  40619a:	48 89 7d f8          	mov    %rdi,-0x8(%rbp)
  40619e:	48 89 75 f0          	mov    %rsi,-0x10(%rbp)
  4061a2:	48 8b 55 f0          	mov    -0x10(%rbp),%rdx
  4061a6:	48 8b 45 f8          	mov    -0x8(%rbp),%rax
  4061aa:	48 89 d6             	mov    %rdx,%rsi
  4061ad:	48 89 c7             	mov    %rax,%rdi
  4061b0:	e8 ab f0 ff ff       	callq  405260 <_ZNSt7__cxx1112basic_stringIcSt11char_traitsIcESaIcEEaSERKS4_@plt>
  4061b5:	48 8b 45 f0          	mov    -0x10(%rbp),%rax
  4061b9:	48 8d 50 20          	lea    0x20(%rax),%rdx
  4061bd:	48 8b 45 f8          	mov    -0x8(%rbp),%rax
  4061c1:	48 83 c0 20          	add    $0x20,%rax
  4061c5:	48 89 d6             	mov    %rdx,%rsi
  4061c8:	48 89 c7             	mov    %rax,%rdi
  4061cb:	e8 90 f0 ff ff       	callq  405260 <_ZNSt7__cxx1112basic_stringIcSt11char_traitsIcESaIcEEaSERKS4_@plt>
  4061d0:	48 8b 45 f8          	mov    -0x8(%rbp),%rax
  4061d4:	c9                   	leaveq 
  4061d5:	c3                   	retq   

00000000004061d6 <_ZNSt6vectorI9key_valueSaIS0_EE13_M_insert_auxEN9__gnu_cxx17__normal_iteratorIPS0_S2_EERKS0_>:
  4061d6:	55                   	push   %rbp
  4061d7:	48 89 e5             	mov    %rsp,%rbp
  4061da:	41 54                	push   %r12
  4061dc:	53                   	push   %rbx
  4061dd:	48 81 ec a0 00 00 00 	sub    $0xa0,%rsp
  4061e4:	48 89 bd 68 ff ff ff 	mov    %rdi,-0x98(%rbp)
  4061eb:	48 89 b5 60 ff ff ff 	mov    %rsi,-0xa0(%rbp)
  4061f2:	48 89 95 58 ff ff ff 	mov    %rdx,-0xa8(%rbp)
  4061f9:	64 48 8b 04 25 28 00 	mov    %fs:0x28,%rax
  406200:	00 00 
  406202:	48 89 45 e8          	mov    %rax,-0x18(%rbp)
  406206:	31 c0                	xor    %eax,%eax
  406208:	48 8b 85 68 ff ff ff 	mov    -0x98(%rbp),%rax
  40620f:	48 8b 50 08          	mov    0x8(%rax),%rdx
  406213:	48 8b 85 68 ff ff ff 	mov    -0x98(%rbp),%rax
  40621a:	48 8b 40 10          	mov    0x10(%rax),%rax
  40621e:	48 39 c2             	cmp    %rax,%rdx
  406221:	0f 84 cc 00 00 00    	je     4062f3 <_ZNSt6vectorI9key_valueSaIS0_EE13_M_insert_auxEN9__gnu_cxx17__normal_iteratorIPS0_S2_EERKS0_+0x11d>
  406227:	48 8b 85 68 ff ff ff 	mov    -0x98(%rbp),%rax
  40622e:	48 8b 40 08          	mov    0x8(%rax),%rax
  406232:	48 8d 50 c0          	lea    -0x40(%rax),%rdx
  406236:	48 8b 85 68 ff ff ff 	mov    -0x98(%rbp),%rax
  40623d:	48 8b 48 08          	mov    0x8(%rax),%rcx
  406241:	48 8b 85 68 ff ff ff 	mov    -0x98(%rbp),%rax
  406248:	48 89 ce             	mov    %rcx,%rsi
  40624b:	48 89 c7             	mov    %rax,%rdi
  40624e:	e8 ae fe ff ff       	callq  406101 <_ZN9__gnu_cxx14__alloc_traitsISaI9key_valueEE9constructIS1_EEvRS2_PS1_RKT_>
  406253:	48 8b 85 68 ff ff ff 	mov    -0x98(%rbp),%rax
  40625a:	48 8b 40 08          	mov    0x8(%rax),%rax
  40625e:	48 8d 50 40          	lea    0x40(%rax),%rdx
  406262:	48 8b 85 68 ff ff ff 	mov    -0x98(%rbp),%rax
  406269:	48 89 50 08          	mov    %rdx,0x8(%rax)
  40626d:	48 8b 95 58 ff ff ff 	mov    -0xa8(%rbp),%rdx
  406274:	48 8d 45 a0          	lea    -0x60(%rbp),%rax
  406278:	48 89 d6             	mov    %rdx,%rsi
  40627b:	48 89 c7             	mov    %rax,%rdi
  40627e:	e8 ad fe ff ff       	callq  406130 <_ZN9key_valueC1ERKS_>
  406283:	48 8b 85 68 ff ff ff 	mov    -0x98(%rbp),%rax
  40628a:	48 8b 40 08          	mov    0x8(%rax),%rax
  40628e:	4c 8d 60 c0          	lea    -0x40(%rax),%r12
  406292:	48 8b 85 68 ff ff ff 	mov    -0x98(%rbp),%rax
  406299:	48 8b 40 08          	mov    0x8(%rax),%rax
  40629d:	48 8d 58 80          	lea    -0x80(%rax),%rbx
  4062a1:	48 8d 85 60 ff ff ff 	lea    -0xa0(%rbp),%rax
  4062a8:	48 89 c7             	mov    %rax,%rdi
  4062ab:	e8 56 04 00 00       	callq  406706 <_ZNK9__gnu_cxx17__normal_iteratorIP9key_valueSt6vectorIS1_SaIS1_EEE4baseEv>
  4062b0:	48 8b 00             	mov    (%rax),%rax
  4062b3:	4c 89 e2             	mov    %r12,%rdx
  4062b6:	48 89 de             	mov    %rbx,%rsi
  4062b9:	48 89 c7             	mov    %rax,%rdi
  4062bc:	e8 53 04 00 00       	callq  406714 <_ZSt13copy_backwardIP9key_valueS1_ET0_T_S3_S2_>
  4062c1:	48 8d 85 60 ff ff ff 	lea    -0xa0(%rbp),%rax
  4062c8:	48 89 c7             	mov    %rax,%rdi
  4062cb:	e8 90 04 00 00       	callq  406760 <_ZNK9__gnu_cxx17__normal_iteratorIP9key_valueSt6vectorIS1_SaIS1_EEEdeEv>
  4062d0:	48 89 c2             	mov    %rax,%rdx
  4062d3:	48 8d 45 a0          	lea    -0x60(%rbp),%rax
  4062d7:	48 89 c6             	mov    %rax,%rsi
  4062da:	48 89 d7             	mov    %rdx,%rdi
  4062dd:	e8 b0 fe ff ff       	callq  406192 <_ZN9key_valueaSERKS_>
  4062e2:	48 8d 45 a0          	lea    -0x60(%rbp),%rax
  4062e6:	48 89 c7             	mov    %rax,%rdi
  4062e9:	e8 0c fb ff ff       	callq  405dfa <_ZN9key_valueD1Ev>
  4062ee:	e9 89 02 00 00       	jmpq   40657c <_ZNSt6vectorI9key_valueSaIS0_EE13_M_insert_auxEN9__gnu_cxx17__normal_iteratorIPS0_S2_EERKS0_+0x3a6>
  4062f3:	48 8b 85 68 ff ff ff 	mov    -0x98(%rbp),%rax
  4062fa:	ba c3 9a 40 00       	mov    $0x409ac3,%edx
  4062ff:	be 01 00 00 00       	mov    $0x1,%esi
  406304:	48 89 c7             	mov    %rax,%rdi
  406307:	e8 66 04 00 00       	callq  406772 <_ZNKSt6vectorI9key_valueSaIS0_EE12_M_check_lenEmPKc>
  40630c:	48 89 45 88          	mov    %rax,-0x78(%rbp)
  406310:	48 8b 85 68 ff ff ff 	mov    -0x98(%rbp),%rax
  406317:	48 89 c7             	mov    %rax,%rdi
  40631a:	e8 3f 05 00 00       	callq  40685e <_ZNSt6vectorI9key_valueSaIS0_EE5beginEv>
  40631f:	48 89 85 70 ff ff ff 	mov    %rax,-0x90(%rbp)
  406326:	48 8d 95 70 ff ff ff 	lea    -0x90(%rbp),%rdx
  40632d:	48 8d 85 60 ff ff ff 	lea    -0xa0(%rbp),%rax
  406334:	48 89 d6             	mov    %rdx,%rsi
  406337:	48 89 c7             	mov    %rax,%rdi
  40633a:	e8 67 05 00 00       	callq  4068a6 <_ZN9__gnu_cxxmiIP9key_valueSt6vectorIS1_SaIS1_EEEENS_17__normal_iteratorIT_T0_E15difference_typeERKS9_SC_>
  40633f:	48 89 45 90          	mov    %rax,-0x70(%rbp)
  406343:	48 8b 85 68 ff ff ff 	mov    -0x98(%rbp),%rax
  40634a:	48 8b 55 88          	mov    -0x78(%rbp),%rdx
  40634e:	48 89 d6             	mov    %rdx,%rsi
  406351:	48 89 c7             	mov    %rax,%rdi
  406354:	e8 91 05 00 00       	callq  4068ea <_ZNSt12_Vector_baseI9key_valueSaIS0_EE11_M_allocateEm>
  406359:	48 89 45 98          	mov    %rax,-0x68(%rbp)
  40635d:	48 8b 45 98          	mov    -0x68(%rbp),%rax
  406361:	48 89 45 80          	mov    %rax,-0x80(%rbp)
  406365:	48 8b 45 90          	mov    -0x70(%rbp),%rax
  406369:	48 c1 e0 06          	shl    $0x6,%rax
  40636d:	48 89 c2             	mov    %rax,%rdx
  406370:	48 8b 45 98          	mov    -0x68(%rbp),%rax
  406374:	48 8d 0c 02          	lea    (%rdx,%rax,1),%rcx
  406378:	48 8b 85 68 ff ff ff 	mov    -0x98(%rbp),%rax
  40637f:	48 8b 95 58 ff ff ff 	mov    -0xa8(%rbp),%rdx
  406386:	48 89 ce             	mov    %rcx,%rsi
  406389:	48 89 c7             	mov    %rax,%rdi
  40638c:	e8 70 fd ff ff       	callq  406101 <_ZN9__gnu_cxx14__alloc_traitsISaI9key_valueEE9constructIS1_EEvRS2_PS1_RKT_>
  406391:	48 c7 45 80 00 00 00 	movq   $0x0,-0x80(%rbp)
  406398:	00 
  406399:	48 8b 85 68 ff ff ff 	mov    -0x98(%rbp),%rax
  4063a0:	48 89 c7             	mov    %rax,%rdi
  4063a3:	e8 dc fc ff ff       	callq  406084 <_ZNSt12_Vector_baseI9key_valueSaIS0_EE19_M_get_Tp_allocatorEv>
  4063a8:	48 89 c3             	mov    %rax,%rbx
  4063ab:	48 8d 85 60 ff ff ff 	lea    -0xa0(%rbp),%rax
  4063b2:	48 89 c7             	mov    %rax,%rdi
  4063b5:	e8 4c 03 00 00       	callq  406706 <_ZNK9__gnu_cxx17__normal_iteratorIP9key_valueSt6vectorIS1_SaIS1_EEE4baseEv>
  4063ba:	48 8b 30             	mov    (%rax),%rsi
  4063bd:	48 8b 85 68 ff ff ff 	mov    -0x98(%rbp),%rax
  4063c4:	48 8b 00             	mov    (%rax),%rax
  4063c7:	48 8b 55 98          	mov    -0x68(%rbp),%rdx
  4063cb:	48 89 d9             	mov    %rbx,%rcx
  4063ce:	48 89 c7             	mov    %rax,%rdi
  4063d1:	e8 47 05 00 00       	callq  40691d <_ZSt34__uninitialized_move_if_noexcept_aIP9key_valueS1_SaIS0_EET0_T_S4_S3_RT1_>
  4063d6:	48 89 45 80          	mov    %rax,-0x80(%rbp)
  4063da:	48 83 45 80 40       	addq   $0x40,-0x80(%rbp)
  4063df:	48 8b 85 68 ff ff ff 	mov    -0x98(%rbp),%rax
  4063e6:	48 89 c7             	mov    %rax,%rdi
  4063e9:	e8 96 fc ff ff       	callq  406084 <_ZNSt12_Vector_baseI9key_valueSaIS0_EE19_M_get_Tp_allocatorEv>
  4063ee:	49 89 c4             	mov    %rax,%r12
  4063f1:	48 8b 85 68 ff ff ff 	mov    -0x98(%rbp),%rax
  4063f8:	48 8b 58 08          	mov    0x8(%rax),%rbx
  4063fc:	48 8d 85 60 ff ff ff 	lea    -0xa0(%rbp),%rax
  406403:	48 89 c7             	mov    %rax,%rdi
  406406:	e8 fb 02 00 00       	callq  406706 <_ZNK9__gnu_cxx17__normal_iteratorIP9key_valueSt6vectorIS1_SaIS1_EEE4baseEv>
  40640b:	48 8b 00             	mov    (%rax),%rax
  40640e:	48 8b 55 80          	mov    -0x80(%rbp),%rdx
  406412:	4c 89 e1             	mov    %r12,%rcx
  406415:	48 89 de             	mov    %rbx,%rsi
  406418:	48 89 c7             	mov    %rax,%rdi
  40641b:	e8 fd 04 00 00       	callq  40691d <_ZSt34__uninitialized_move_if_noexcept_aIP9key_valueS1_SaIS0_EET0_T_S4_S3_RT1_>
  406420:	48 89 45 80          	mov    %rax,-0x80(%rbp)
  406424:	48 8b 85 68 ff ff ff 	mov    -0x98(%rbp),%rax
  40642b:	48 89 c7             	mov    %rax,%rdi
  40642e:	e8 51 fc ff ff       	callq  406084 <_ZNSt12_Vector_baseI9key_valueSaIS0_EE19_M_get_Tp_allocatorEv>
  406433:	48 89 c2             	mov    %rax,%rdx
  406436:	48 8b 85 68 ff ff ff 	mov    -0x98(%rbp),%rax
  40643d:	48 8b 48 08          	mov    0x8(%rax),%rcx
  406441:	48 8b 85 68 ff ff ff 	mov    -0x98(%rbp),%rax
  406448:	48 8b 00             	mov    (%rax),%rax
  40644b:	48 89 ce             	mov    %rcx,%rsi
  40644e:	48 89 c7             	mov    %rax,%rdi
  406451:	e8 3c fc ff ff       	callq  406092 <_ZSt8_DestroyIP9key_valueS0_EvT_S2_RSaIT0_E>
  406456:	48 8b 85 68 ff ff ff 	mov    -0x98(%rbp),%rax
  40645d:	48 8b 40 10          	mov    0x10(%rax),%rax
  406461:	48 89 c2             	mov    %rax,%rdx
  406464:	48 8b 85 68 ff ff ff 	mov    -0x98(%rbp),%rax
  40646b:	48 8b 00             	mov    (%rax),%rax
  40646e:	48 29 c2             	sub    %rax,%rdx
  406471:	48 89 d0             	mov    %rdx,%rax
  406474:	48 c1 f8 06          	sar    $0x6,%rax
  406478:	48 89 c2             	mov    %rax,%rdx
  40647b:	48 8b 85 68 ff ff ff 	mov    -0x98(%rbp),%rax
  406482:	48 8b 08             	mov    (%rax),%rcx
  406485:	48 8b 85 68 ff ff ff 	mov    -0x98(%rbp),%rax
  40648c:	48 89 ce             	mov    %rcx,%rsi
  40648f:	48 89 c7             	mov    %rax,%rdi
  406492:	e8 ab 01 00 00       	callq  406642 <_ZNSt12_Vector_baseI9key_valueSaIS0_EE13_M_deallocateEPS0_m>
  406497:	48 8b 85 68 ff ff ff 	mov    -0x98(%rbp),%rax
  40649e:	48 8b 55 98          	mov    -0x68(%rbp),%rdx
  4064a2:	48 89 10             	mov    %rdx,(%rax)
  4064a5:	48 8b 85 68 ff ff ff 	mov    -0x98(%rbp),%rax
  4064ac:	48 8b 55 80          	mov    -0x80(%rbp),%rdx
  4064b0:	48 89 50 08          	mov    %rdx,0x8(%rax)
  4064b4:	48 8b 45 88          	mov    -0x78(%rbp),%rax
  4064b8:	48 c1 e0 06          	shl    $0x6,%rax
  4064bc:	48 89 c2             	mov    %rax,%rdx
  4064bf:	48 8b 45 98          	mov    -0x68(%rbp),%rax
  4064c3:	48 01 c2             	add    %rax,%rdx
  4064c6:	48 8b 85 68 ff ff ff 	mov    -0x98(%rbp),%rax
  4064cd:	48 89 50 10          	mov    %rdx,0x10(%rax)
  4064d1:	e9 a6 00 00 00       	jmpq   40657c <_ZNSt6vectorI9key_valueSaIS0_EE13_M_insert_auxEN9__gnu_cxx17__normal_iteratorIPS0_S2_EERKS0_+0x3a6>
  4064d6:	48 89 c3             	mov    %rax,%rbx
  4064d9:	48 8d 45 a0          	lea    -0x60(%rbp),%rax
  4064dd:	48 89 c7             	mov    %rax,%rdi
  4064e0:	e8 15 f9 ff ff       	callq  405dfa <_ZN9key_valueD1Ev>
  4064e5:	48 89 d8             	mov    %rbx,%rax
  4064e8:	48 89 c7             	mov    %rax,%rdi
  4064eb:	e8 50 ee ff ff       	callq  405340 <_Unwind_Resume@plt>
  4064f0:	48 89 c7             	mov    %rax,%rdi
  4064f3:	e8 c8 ed ff ff       	callq  4052c0 <__cxa_begin_catch@plt>
  4064f8:	48 83 7d 80 00       	cmpq   $0x0,-0x80(%rbp)
  4064fd:	75 26                	jne    406525 <_ZNSt6vectorI9key_valueSaIS0_EE13_M_insert_auxEN9__gnu_cxx17__normal_iteratorIPS0_S2_EERKS0_+0x34f>
  4064ff:	48 8b 45 90          	mov    -0x70(%rbp),%rax
  406503:	48 c1 e0 06          	shl    $0x6,%rax
  406507:	48 89 c2             	mov    %rax,%rdx
  40650a:	48 8b 45 98          	mov    -0x68(%rbp),%rax
  40650e:	48 01 c2             	add    %rax,%rdx
  406511:	48 8b 85 68 ff ff ff 	mov    -0x98(%rbp),%rax
  406518:	48 89 d6             	mov    %rdx,%rsi
  40651b:	48 89 c7             	mov    %rax,%rdi
  40651e:	e8 2c 04 00 00       	callq  40694f <_ZN9__gnu_cxx14__alloc_traitsISaI9key_valueEE7destroyERS2_PS1_>
  406523:	eb 25                	jmp    40654a <_ZNSt6vectorI9key_valueSaIS0_EE13_M_insert_auxEN9__gnu_cxx17__normal_iteratorIPS0_S2_EERKS0_+0x374>
  406525:	48 8b 85 68 ff ff ff 	mov    -0x98(%rbp),%rax
  40652c:	48 89 c7             	mov    %rax,%rdi
  40652f:	e8 50 fb ff ff       	callq  406084 <_ZNSt12_Vector_baseI9key_valueSaIS0_EE19_M_get_Tp_allocatorEv>
  406534:	48 89 c2             	mov    %rax,%rdx
  406537:	48 8b 4d 80          	mov    -0x80(%rbp),%rcx
  40653b:	48 8b 45 98          	mov    -0x68(%rbp),%rax
  40653f:	48 89 ce             	mov    %rcx,%rsi
  406542:	48 89 c7             	mov    %rax,%rdi
  406545:	e8 48 fb ff ff       	callq  406092 <_ZSt8_DestroyIP9key_valueS0_EvT_S2_RSaIT0_E>
  40654a:	48 8b 85 68 ff ff ff 	mov    -0x98(%rbp),%rax
  406551:	48 8b 55 88          	mov    -0x78(%rbp),%rdx
  406555:	48 8b 4d 98          	mov    -0x68(%rbp),%rcx
  406559:	48 89 ce             	mov    %rcx,%rsi
  40655c:	48 89 c7             	mov    %rax,%rdi
  40655f:	e8 de 00 00 00       	callq  406642 <_ZNSt12_Vector_baseI9key_valueSaIS0_EE13_M_deallocateEPS0_m>
  406564:	e8 07 eb ff ff       	callq  405070 <__cxa_rethrow@plt>
  406569:	48 89 c3             	mov    %rax,%rbx
  40656c:	e8 0f ed ff ff       	callq  405280 <__cxa_end_catch@plt>
  406571:	48 89 d8             	mov    %rbx,%rax
  406574:	48 89 c7             	mov    %rax,%rdi
  406577:	e8 c4 ed ff ff       	callq  405340 <_Unwind_Resume@plt>
  40657c:	48 8b 45 e8          	mov    -0x18(%rbp),%rax
  406580:	64 48 33 04 25 28 00 	xor    %fs:0x28,%rax
  406587:	00 00 
  406589:	74 05                	je     406590 <_ZNSt6vectorI9key_valueSaIS0_EE13_M_insert_auxEN9__gnu_cxx17__normal_iteratorIPS0_S2_EERKS0_+0x3ba>
  40658b:	e8 70 ec ff ff       	callq  405200 <__stack_chk_fail@plt>
  406590:	48 81 c4 a0 00 00 00 	add    $0xa0,%rsp
  406597:	5b                   	pop    %rbx
  406598:	41 5c                	pop    %r12
  40659a:	5d                   	pop    %rbp
  40659b:	c3                   	retq   

000000000040659c <_ZNSt6vectorI9key_valueSaIS0_EE3endEv>:
  40659c:	55                   	push   %rbp
  40659d:	48 89 e5             	mov    %rsp,%rbp
  4065a0:	48 83 ec 20          	sub    $0x20,%rsp
  4065a4:	48 89 7d e8          	mov    %rdi,-0x18(%rbp)
  4065a8:	64 48 8b 04 25 28 00 	mov    %fs:0x28,%rax
  4065af:	00 00 
  4065b1:	48 89 45 f8          	mov    %rax,-0x8(%rbp)
  4065b5:	31 c0                	xor    %eax,%eax
  4065b7:	48 8b 45 e8          	mov    -0x18(%rbp),%rax
  4065bb:	48 8d 50 08          	lea    0x8(%rax),%rdx
  4065bf:	48 8d 45 f0          	lea    -0x10(%rbp),%rax
  4065c3:	48 89 d6             	mov    %rdx,%rsi
  4065c6:	48 89 c7             	mov    %rax,%rdi
  4065c9:	e8 a8 03 00 00       	callq  406976 <_ZN9__gnu_cxx17__normal_iteratorIP9key_valueSt6vectorIS1_SaIS1_EEEC1ERKS2_>
  4065ce:	48 8b 45 f0          	mov    -0x10(%rbp),%rax
  4065d2:	48 8b 4d f8          	mov    -0x8(%rbp),%rcx
  4065d6:	64 48 33 0c 25 28 00 	xor    %fs:0x28,%rcx
  4065dd:	00 00 
  4065df:	74 05                	je     4065e6 <_ZNSt6vectorI9key_valueSaIS0_EE3endEv+0x4a>
  4065e1:	e8 1a ec ff ff       	callq  405200 <__stack_chk_fail@plt>
  4065e6:	c9                   	leaveq 
  4065e7:	c3                   	retq   

00000000004065e8 <_ZNSt12_Vector_baseI9key_valueSaIS0_EE12_Vector_implC1Ev>:
  4065e8:	55                   	push   %rbp
  4065e9:	48 89 e5             	mov    %rsp,%rbp
  4065ec:	48 83 ec 10          	sub    $0x10,%rsp
  4065f0:	48 89 7d f8          	mov    %rdi,-0x8(%rbp)
  4065f4:	48 8b 45 f8          	mov    -0x8(%rbp),%rax
  4065f8:	48 89 c7             	mov    %rax,%rdi
  4065fb:	e8 94 03 00 00       	callq  406994 <_ZNSaI9key_valueEC1Ev>
  406600:	48 8b 45 f8          	mov    -0x8(%rbp),%rax
  406604:	48 c7 00 00 00 00 00 	movq   $0x0,(%rax)
  40660b:	48 8b 45 f8          	mov    -0x8(%rbp),%rax
  40660f:	48 c7 40 08 00 00 00 	movq   $0x0,0x8(%rax)
  406616:	00 
  406617:	48 8b 45 f8          	mov    -0x8(%rbp),%rax
  40661b:	48 c7 40 10 00 00 00 	movq   $0x0,0x10(%rax)
  406622:	00 
  406623:	90                   	nop
  406624:	c9                   	leaveq 
  406625:	c3                   	retq   

0000000000406626 <_ZNSaI9key_valueED1Ev>:
  406626:	55                   	push   %rbp
  406627:	48 89 e5             	mov    %rsp,%rbp
  40662a:	48 83 ec 10          	sub    $0x10,%rsp
  40662e:	48 89 7d f8          	mov    %rdi,-0x8(%rbp)
  406632:	48 8b 45 f8          	mov    -0x8(%rbp),%rax
  406636:	48 89 c7             	mov    %rax,%rdi
  406639:	e8 72 03 00 00       	callq  4069b0 <_ZN9__gnu_cxx13new_allocatorI9key_valueED1Ev>
  40663e:	90                   	nop
  40663f:	c9                   	leaveq 
  406640:	c3                   	retq   
  406641:	90                   	nop

0000000000406642 <_ZNSt12_Vector_baseI9key_valueSaIS0_EE13_M_deallocateEPS0_m>:
  406642:	55                   	push   %rbp
  406643:	48 89 e5             	mov    %rsp,%rbp
  406646:	48 83 ec 20          	sub    $0x20,%rsp
  40664a:	48 89 7d f8          	mov    %rdi,-0x8(%rbp)
  40664e:	48 89 75 f0          	mov    %rsi,-0x10(%rbp)
  406652:	48 89 55 e8          	mov    %rdx,-0x18(%rbp)
  406656:	48 83 7d f0 00       	cmpq   $0x0,-0x10(%rbp)
  40665b:	74 17                	je     406674 <_ZNSt12_Vector_baseI9key_valueSaIS0_EE13_M_deallocateEPS0_m+0x32>
  40665d:	48 8b 45 f8          	mov    -0x8(%rbp),%rax
  406661:	48 8b 55 e8          	mov    -0x18(%rbp),%rdx
  406665:	48 8b 4d f0          	mov    -0x10(%rbp),%rcx
  406669:	48 89 ce             	mov    %rcx,%rsi
  40666c:	48 89 c7             	mov    %rax,%rdi
  40666f:	e8 47 03 00 00       	callq  4069bb <_ZN9__gnu_cxx14__alloc_traitsISaI9key_valueEE10deallocateERS2_PS1_m>
  406674:	90                   	nop
  406675:	c9                   	leaveq 
  406676:	c3                   	retq   

0000000000406677 <_ZSt8_DestroyIP9key_valueEvT_S2_>:
  406677:	55                   	push   %rbp
  406678:	48 89 e5             	mov    %rsp,%rbp
  40667b:	48 83 ec 10          	sub    $0x10,%rsp
  40667f:	48 89 7d f8          	mov    %rdi,-0x8(%rbp)
  406683:	48 89 75 f0          	mov    %rsi,-0x10(%rbp)
  406687:	48 8b 55 f0          	mov    -0x10(%rbp),%rdx
  40668b:	48 8b 45 f8          	mov    -0x8(%rbp),%rax
  40668f:	48 89 d6             	mov    %rdx,%rsi
  406692:	48 89 c7             	mov    %rax,%rdi
  406695:	e8 4f 03 00 00       	callq  4069e9 <_ZNSt12_Destroy_auxILb0EE9__destroyIP9key_valueEEvT_S4_>
  40669a:	90                   	nop
  40669b:	c9                   	leaveq 
  40669c:	c3                   	retq   
  40669d:	90                   	nop

000000000040669e <_ZN9__gnu_cxx13new_allocatorI9key_valueE9constructEPS1_RKS1_>:
  40669e:	55                   	push   %rbp
  40669f:	48 89 e5             	mov    %rsp,%rbp
  4066a2:	41 55                	push   %r13
  4066a4:	41 54                	push   %r12
  4066a6:	53                   	push   %rbx
  4066a7:	48 83 ec 28          	sub    $0x28,%rsp
  4066ab:	48 89 7d d8          	mov    %rdi,-0x28(%rbp)
  4066af:	48 89 75 d0          	mov    %rsi,-0x30(%rbp)
  4066b3:	48 89 55 c8          	mov    %rdx,-0x38(%rbp)
  4066b7:	4c 8b 65 d0          	mov    -0x30(%rbp),%r12
  4066bb:	4c 89 e6             	mov    %r12,%rsi
  4066be:	bf 40 00 00 00       	mov    $0x40,%edi
  4066c3:	e8 c4 f6 ff ff       	callq  405d8c <_ZnwmPv>
  4066c8:	48 89 c3             	mov    %rax,%rbx
  4066cb:	48 85 db             	test   %rbx,%rbx
  4066ce:	74 2a                	je     4066fa <_ZN9__gnu_cxx13new_allocatorI9key_valueE9constructEPS1_RKS1_+0x5c>
  4066d0:	48 8b 45 c8          	mov    -0x38(%rbp),%rax
  4066d4:	48 89 c6             	mov    %rax,%rsi
  4066d7:	48 89 df             	mov    %rbx,%rdi
  4066da:	e8 51 fa ff ff       	callq  406130 <_ZN9key_valueC1ERKS_>
  4066df:	eb 19                	jmp    4066fa <_ZN9__gnu_cxx13new_allocatorI9key_valueE9constructEPS1_RKS1_+0x5c>
  4066e1:	49 89 c5             	mov    %rax,%r13
  4066e4:	4c 89 e6             	mov    %r12,%rsi
  4066e7:	48 89 df             	mov    %rbx,%rdi
  4066ea:	e8 af f6 ff ff       	callq  405d9e <_ZdlPvS_>
  4066ef:	4c 89 e8             	mov    %r13,%rax
  4066f2:	48 89 c7             	mov    %rax,%rdi
  4066f5:	e8 46 ec ff ff       	callq  405340 <_Unwind_Resume@plt>
  4066fa:	90                   	nop
  4066fb:	48 83 c4 28          	add    $0x28,%rsp
  4066ff:	5b                   	pop    %rbx
  406700:	41 5c                	pop    %r12
  406702:	41 5d                	pop    %r13
  406704:	5d                   	pop    %rbp
  406705:	c3                   	retq   

0000000000406706 <_ZNK9__gnu_cxx17__normal_iteratorIP9key_valueSt6vectorIS1_SaIS1_EEE4baseEv>:
  406706:	55                   	push   %rbp
  406707:	48 89 e5             	mov    %rsp,%rbp
  40670a:	48 89 7d f8          	mov    %rdi,-0x8(%rbp)
  40670e:	48 8b 45 f8          	mov    -0x8(%rbp),%rax
  406712:	5d                   	pop    %rbp
  406713:	c3                   	retq   

0000000000406714 <_ZSt13copy_backwardIP9key_valueS1_ET0_T_S3_S2_>:
  406714:	55                   	push   %rbp
  406715:	48 89 e5             	mov    %rsp,%rbp
  406718:	53                   	push   %rbx
  406719:	48 83 ec 28          	sub    $0x28,%rsp
  40671d:	48 89 7d e8          	mov    %rdi,-0x18(%rbp)
  406721:	48 89 75 e0          	mov    %rsi,-0x20(%rbp)
  406725:	48 89 55 d8          	mov    %rdx,-0x28(%rbp)
  406729:	48 8b 45 e0          	mov    -0x20(%rbp),%rax
  40672d:	48 89 c7             	mov    %rax,%rdi
  406730:	e8 ec 02 00 00       	callq  406a21 <_ZSt12__miter_baseIP9key_valueENSt11_Miter_baseIT_E13iterator_typeES3_>
  406735:	48 89 c3             	mov    %rax,%rbx
  406738:	48 8b 45 e8          	mov    -0x18(%rbp),%rax
  40673c:	48 89 c7             	mov    %rax,%rdi
  40673f:	e8 dd 02 00 00       	callq  406a21 <_ZSt12__miter_baseIP9key_valueENSt11_Miter_baseIT_E13iterator_typeES3_>
  406744:	48 89 c1             	mov    %rax,%rcx
  406747:	48 8b 45 d8          	mov    -0x28(%rbp),%rax
  40674b:	48 89 c2             	mov    %rax,%rdx
  40674e:	48 89 de             	mov    %rbx,%rsi
  406751:	48 89 cf             	mov    %rcx,%rdi
  406754:	e8 e2 02 00 00       	callq  406a3b <_ZSt23__copy_move_backward_a2ILb0EP9key_valueS1_ET1_T0_S3_S2_>
  406759:	48 83 c4 28          	add    $0x28,%rsp
  40675d:	5b                   	pop    %rbx
  40675e:	5d                   	pop    %rbp
  40675f:	c3                   	retq   

0000000000406760 <_ZNK9__gnu_cxx17__normal_iteratorIP9key_valueSt6vectorIS1_SaIS1_EEEdeEv>:
  406760:	55                   	push   %rbp
  406761:	48 89 e5             	mov    %rsp,%rbp
  406764:	48 89 7d f8          	mov    %rdi,-0x8(%rbp)
  406768:	48 8b 45 f8          	mov    -0x8(%rbp),%rax
  40676c:	48 8b 00             	mov    (%rax),%rax
  40676f:	5d                   	pop    %rbp
  406770:	c3                   	retq   
  406771:	90                   	nop

0000000000406772 <_ZNKSt6vectorI9key_valueSaIS0_EE12_M_check_lenEmPKc>:
  406772:	55                   	push   %rbp
  406773:	48 89 e5             	mov    %rsp,%rbp
  406776:	53                   	push   %rbx
  406777:	48 83 ec 48          	sub    $0x48,%rsp
  40677b:	48 89 7d c8          	mov    %rdi,-0x38(%rbp)
  40677f:	48 89 75 c0          	mov    %rsi,-0x40(%rbp)
  406783:	48 89 55 b8          	mov    %rdx,-0x48(%rbp)
  406787:	64 48 8b 04 25 28 00 	mov    %fs:0x28,%rax
  40678e:	00 00 
  406790:	48 89 45 e8          	mov    %rax,-0x18(%rbp)
  406794:	31 c0                	xor    %eax,%eax
  406796:	48 8b 45 c8          	mov    -0x38(%rbp),%rax
  40679a:	48 89 c7             	mov    %rax,%rdi
  40679d:	e8 f2 02 00 00       	callq  406a94 <_ZNKSt6vectorI9key_valueSaIS0_EE8max_sizeEv>
  4067a2:	48 89 c3             	mov    %rax,%rbx
  4067a5:	48 8b 45 c8          	mov    -0x38(%rbp),%rax
  4067a9:	48 89 c7             	mov    %rax,%rdi
  4067ac:	e8 e3 f7 ff ff       	callq  405f94 <_ZNKSt6vectorI9key_valueSaIS0_EE4sizeEv>
  4067b1:	48 29 c3             	sub    %rax,%rbx
  4067b4:	48 89 da             	mov    %rbx,%rdx
  4067b7:	48 8b 45 c0          	mov    -0x40(%rbp),%rax
  4067bb:	48 39 c2             	cmp    %rax,%rdx
  4067be:	0f 92 c0             	setb   %al
  4067c1:	84 c0                	test   %al,%al
  4067c3:	74 0c                	je     4067d1 <_ZNKSt6vectorI9key_valueSaIS0_EE12_M_check_lenEmPKc+0x5f>
  4067c5:	48 8b 45 b8          	mov    -0x48(%rbp),%rax
  4067c9:	48 89 c7             	mov    %rax,%rdi
  4067cc:	e8 ff e7 ff ff       	callq  404fd0 <_ZSt20__throw_length_errorPKc@plt>
  4067d1:	48 8b 45 c8          	mov    -0x38(%rbp),%rax
  4067d5:	48 89 c7             	mov    %rax,%rdi
  4067d8:	e8 b7 f7 ff ff       	callq  405f94 <_ZNKSt6vectorI9key_valueSaIS0_EE4sizeEv>
  4067dd:	48 89 c3             	mov    %rax,%rbx
  4067e0:	48 8b 45 c8          	mov    -0x38(%rbp),%rax
  4067e4:	48 89 c7             	mov    %rax,%rdi
  4067e7:	e8 a8 f7 ff ff       	callq  405f94 <_ZNKSt6vectorI9key_valueSaIS0_EE4sizeEv>
  4067ec:	48 89 45 d8          	mov    %rax,-0x28(%rbp)
  4067f0:	48 8d 55 c0          	lea    -0x40(%rbp),%rdx
  4067f4:	48 8d 45 d8          	lea    -0x28(%rbp),%rax
  4067f8:	48 89 d6             	mov    %rdx,%rsi
  4067fb:	48 89 c7             	mov    %rax,%rdi
  4067fe:	e8 b3 02 00 00       	callq  406ab6 <_ZSt3maxImERKT_S2_S2_>
  406803:	48 8b 00             	mov    (%rax),%rax
  406806:	48 01 d8             	add    %rbx,%rax
  406809:	48 89 45 e0          	mov    %rax,-0x20(%rbp)
  40680d:	48 8b 45 c8          	mov    -0x38(%rbp),%rax
  406811:	48 89 c7             	mov    %rax,%rdi
  406814:	e8 7b f7 ff ff       	callq  405f94 <_ZNKSt6vectorI9key_valueSaIS0_EE4sizeEv>
  406819:	48 3b 45 e0          	cmp    -0x20(%rbp),%rax
  40681d:	77 12                	ja     406831 <_ZNKSt6vectorI9key_valueSaIS0_EE12_M_check_lenEmPKc+0xbf>
  40681f:	48 8b 45 c8          	mov    -0x38(%rbp),%rax
  406823:	48 89 c7             	mov    %rax,%rdi
  406826:	e8 69 02 00 00       	callq  406a94 <_ZNKSt6vectorI9key_valueSaIS0_EE8max_sizeEv>
  40682b:	48 3b 45 e0          	cmp    -0x20(%rbp),%rax
  40682f:	73 0e                	jae    40683f <_ZNKSt6vectorI9key_valueSaIS0_EE12_M_check_lenEmPKc+0xcd>
  406831:	48 8b 45 c8          	mov    -0x38(%rbp),%rax
  406835:	48 89 c7             	mov    %rax,%rdi
  406838:	e8 57 02 00 00       	callq  406a94 <_ZNKSt6vectorI9key_valueSaIS0_EE8max_sizeEv>
  40683d:	eb 04                	jmp    406843 <_ZNKSt6vectorI9key_valueSaIS0_EE12_M_check_lenEmPKc+0xd1>
  40683f:	48 8b 45 e0          	mov    -0x20(%rbp),%rax
  406843:	48 8b 4d e8          	mov    -0x18(%rbp),%rcx
  406847:	64 48 33 0c 25 28 00 	xor    %fs:0x28,%rcx
  40684e:	00 00 
  406850:	74 05                	je     406857 <_ZNKSt6vectorI9key_valueSaIS0_EE12_M_check_lenEmPKc+0xe5>
  406852:	e8 a9 e9 ff ff       	callq  405200 <__stack_chk_fail@plt>
  406857:	48 83 c4 48          	add    $0x48,%rsp
  40685b:	5b                   	pop    %rbx
  40685c:	5d                   	pop    %rbp
  40685d:	c3                   	retq   

000000000040685e <_ZNSt6vectorI9key_valueSaIS0_EE5beginEv>:
  40685e:	55                   	push   %rbp
  40685f:	48 89 e5             	mov    %rsp,%rbp
  406862:	48 83 ec 20          	sub    $0x20,%rsp
  406866:	48 89 7d e8          	mov    %rdi,-0x18(%rbp)
  40686a:	64 48 8b 04 25 28 00 	mov    %fs:0x28,%rax
  406871:	00 00 
  406873:	48 89 45 f8          	mov    %rax,-0x8(%rbp)
  406877:	31 c0                	xor    %eax,%eax
  406879:	48 8b 55 e8          	mov    -0x18(%rbp),%rdx
  40687d:	48 8d 45 f0          	lea    -0x10(%rbp),%rax
  406881:	48 89 d6             	mov    %rdx,%rsi
  406884:	48 89 c7             	mov    %rax,%rdi
  406887:	e8 ea 00 00 00       	callq  406976 <_ZN9__gnu_cxx17__normal_iteratorIP9key_valueSt6vectorIS1_SaIS1_EEEC1ERKS2_>
  40688c:	48 8b 45 f0          	mov    -0x10(%rbp),%rax
  406890:	48 8b 4d f8          	mov    -0x8(%rbp),%rcx
  406894:	64 48 33 0c 25 28 00 	xor    %fs:0x28,%rcx
  40689b:	00 00 
  40689d:	74 05                	je     4068a4 <_ZNSt6vectorI9key_valueSaIS0_EE5beginEv+0x46>
  40689f:	e8 5c e9 ff ff       	callq  405200 <__stack_chk_fail@plt>
  4068a4:	c9                   	leaveq 
  4068a5:	c3                   	retq   

00000000004068a6 <_ZN9__gnu_cxxmiIP9key_valueSt6vectorIS1_SaIS1_EEEENS_17__normal_iteratorIT_T0_E15difference_typeERKS9_SC_>:
  4068a6:	55                   	push   %rbp
  4068a7:	48 89 e5             	mov    %rsp,%rbp
  4068aa:	53                   	push   %rbx
  4068ab:	48 83 ec 18          	sub    $0x18,%rsp
  4068af:	48 89 7d e8          	mov    %rdi,-0x18(%rbp)
  4068b3:	48 89 75 e0          	mov    %rsi,-0x20(%rbp)
  4068b7:	48 8b 45 e8          	mov    -0x18(%rbp),%rax
  4068bb:	48 89 c7             	mov    %rax,%rdi
  4068be:	e8 43 fe ff ff       	callq  406706 <_ZNK9__gnu_cxx17__normal_iteratorIP9key_valueSt6vectorIS1_SaIS1_EEE4baseEv>
  4068c3:	48 8b 00             	mov    (%rax),%rax
  4068c6:	48 89 c3             	mov    %rax,%rbx
  4068c9:	48 8b 45 e0          	mov    -0x20(%rbp),%rax
  4068cd:	48 89 c7             	mov    %rax,%rdi
  4068d0:	e8 31 fe ff ff       	callq  406706 <_ZNK9__gnu_cxx17__normal_iteratorIP9key_valueSt6vectorIS1_SaIS1_EEE4baseEv>
  4068d5:	48 8b 00             	mov    (%rax),%rax
  4068d8:	48 29 c3             	sub    %rax,%rbx
  4068db:	48 89 d8             	mov    %rbx,%rax
  4068de:	48 c1 f8 06          	sar    $0x6,%rax
  4068e2:	48 83 c4 18          	add    $0x18,%rsp
  4068e6:	5b                   	pop    %rbx
  4068e7:	5d                   	pop    %rbp
  4068e8:	c3                   	retq   
  4068e9:	90                   	nop

00000000004068ea <_ZNSt12_Vector_baseI9key_valueSaIS0_EE11_M_allocateEm>:
  4068ea:	55                   	push   %rbp
  4068eb:	48 89 e5             	mov    %rsp,%rbp
  4068ee:	48 83 ec 10          	sub    $0x10,%rsp
  4068f2:	48 89 7d f8          	mov    %rdi,-0x8(%rbp)
  4068f6:	48 89 75 f0          	mov    %rsi,-0x10(%rbp)
  4068fa:	48 83 7d f0 00       	cmpq   $0x0,-0x10(%rbp)
  4068ff:	74 15                	je     406916 <_ZNSt12_Vector_baseI9key_valueSaIS0_EE11_M_allocateEm+0x2c>
  406901:	48 8b 45 f8          	mov    -0x8(%rbp),%rax
  406905:	48 8b 55 f0          	mov    -0x10(%rbp),%rdx
  406909:	48 89 d6             	mov    %rdx,%rsi
  40690c:	48 89 c7             	mov    %rax,%rdi
  40690f:	e8 cd 01 00 00       	callq  406ae1 <_ZN9__gnu_cxx14__alloc_traitsISaI9key_valueEE8allocateERS2_m>
  406914:	eb 05                	jmp    40691b <_ZNSt12_Vector_baseI9key_valueSaIS0_EE11_M_allocateEm+0x31>
  406916:	b8 00 00 00 00       	mov    $0x0,%eax
  40691b:	c9                   	leaveq 
  40691c:	c3                   	retq   

000000000040691d <_ZSt34__uninitialized_move_if_noexcept_aIP9key_valueS1_SaIS0_EET0_T_S4_S3_RT1_>:
  40691d:	55                   	push   %rbp
  40691e:	48 89 e5             	mov    %rsp,%rbp
  406921:	48 83 ec 20          	sub    $0x20,%rsp
  406925:	48 89 7d f8          	mov    %rdi,-0x8(%rbp)
  406929:	48 89 75 f0          	mov    %rsi,-0x10(%rbp)
  40692d:	48 89 55 e8          	mov    %rdx,-0x18(%rbp)
  406931:	48 89 4d e0          	mov    %rcx,-0x20(%rbp)
  406935:	48 8b 4d e0          	mov    -0x20(%rbp),%rcx
  406939:	48 8b 55 e8          	mov    -0x18(%rbp),%rdx
  40693d:	48 8b 75 f0          	mov    -0x10(%rbp),%rsi
  406941:	48 8b 45 f8          	mov    -0x8(%rbp),%rax
  406945:	48 89 c7             	mov    %rax,%rdi
  406948:	e8 be 01 00 00       	callq  406b0b <_ZSt22__uninitialized_copy_aIP9key_valueS1_S0_ET0_T_S3_S2_RSaIT1_E>
  40694d:	c9                   	leaveq 
  40694e:	c3                   	retq   

000000000040694f <_ZN9__gnu_cxx14__alloc_traitsISaI9key_valueEE7destroyERS2_PS1_>:
  40694f:	55                   	push   %rbp
  406950:	48 89 e5             	mov    %rsp,%rbp
  406953:	48 83 ec 10          	sub    $0x10,%rsp
  406957:	48 89 7d f8          	mov    %rdi,-0x8(%rbp)
  40695b:	48 89 75 f0          	mov    %rsi,-0x10(%rbp)
  40695f:	48 8b 55 f0          	mov    -0x10(%rbp),%rdx
  406963:	48 8b 45 f8          	mov    -0x8(%rbp),%rax
  406967:	48 89 d6             	mov    %rdx,%rsi
  40696a:	48 89 c7             	mov    %rax,%rdi
  40696d:	e8 ca 01 00 00       	callq  406b3c <_ZN9__gnu_cxx13new_allocatorI9key_valueE7destroyEPS1_>
  406972:	90                   	nop
  406973:	c9                   	leaveq 
  406974:	c3                   	retq   
  406975:	90                   	nop

0000000000406976 <_ZN9__gnu_cxx17__normal_iteratorIP9key_valueSt6vectorIS1_SaIS1_EEEC1ERKS2_>:
  406976:	55                   	push   %rbp
  406977:	48 89 e5             	mov    %rsp,%rbp
  40697a:	48 89 7d f8          	mov    %rdi,-0x8(%rbp)
  40697e:	48 89 75 f0          	mov    %rsi,-0x10(%rbp)
  406982:	48 8b 45 f0          	mov    -0x10(%rbp),%rax
  406986:	48 8b 10             	mov    (%rax),%rdx
  406989:	48 8b 45 f8          	mov    -0x8(%rbp),%rax
  40698d:	48 89 10             	mov    %rdx,(%rax)
  406990:	90                   	nop
  406991:	5d                   	pop    %rbp
  406992:	c3                   	retq   
  406993:	90                   	nop

0000000000406994 <_ZNSaI9key_valueEC1Ev>:
  406994:	55                   	push   %rbp
  406995:	48 89 e5             	mov    %rsp,%rbp
  406998:	48 83 ec 10          	sub    $0x10,%rsp
  40699c:	48 89 7d f8          	mov    %rdi,-0x8(%rbp)
  4069a0:	48 8b 45 f8          	mov    -0x8(%rbp),%rax
  4069a4:	48 89 c7             	mov    %rax,%rdi
  4069a7:	e8 b0 01 00 00       	callq  406b5c <_ZN9__gnu_cxx13new_allocatorI9key_valueEC1Ev>
  4069ac:	90                   	nop
  4069ad:	c9                   	leaveq 
  4069ae:	c3                   	retq   
  4069af:	90                   	nop

00000000004069b0 <_ZN9__gnu_cxx13new_allocatorI9key_valueED1Ev>:
  4069b0:	55                   	push   %rbp
  4069b1:	48 89 e5             	mov    %rsp,%rbp
  4069b4:	48 89 7d f8          	mov    %rdi,-0x8(%rbp)
  4069b8:	90                   	nop
  4069b9:	5d                   	pop    %rbp
  4069ba:	c3                   	retq   

00000000004069bb <_ZN9__gnu_cxx14__alloc_traitsISaI9key_valueEE10deallocateERS2_PS1_m>:
  4069bb:	55                   	push   %rbp
  4069bc:	48 89 e5             	mov    %rsp,%rbp
  4069bf:	48 83 ec 20          	sub    $0x20,%rsp
  4069c3:	48 89 7d f8          	mov    %rdi,-0x8(%rbp)
  4069c7:	48 89 75 f0          	mov    %rsi,-0x10(%rbp)
  4069cb:	48 89 55 e8          	mov    %rdx,-0x18(%rbp)
  4069cf:	48 8b 55 e8          	mov    -0x18(%rbp),%rdx
  4069d3:	48 8b 4d f0          	mov    -0x10(%rbp),%rcx
  4069d7:	48 8b 45 f8          	mov    -0x8(%rbp),%rax
  4069db:	48 89 ce             	mov    %rcx,%rsi
  4069de:	48 89 c7             	mov    %rax,%rdi
  4069e1:	e8 82 01 00 00       	callq  406b68 <_ZN9__gnu_cxx13new_allocatorI9key_valueE10deallocateEPS1_m>
  4069e6:	90                   	nop
  4069e7:	c9                   	leaveq 
  4069e8:	c3                   	retq   

00000000004069e9 <_ZNSt12_Destroy_auxILb0EE9__destroyIP9key_valueEEvT_S4_>:
  4069e9:	55                   	push   %rbp
  4069ea:	48 89 e5             	mov    %rsp,%rbp
  4069ed:	48 83 ec 10          	sub    $0x10,%rsp
  4069f1:	48 89 7d f8          	mov    %rdi,-0x8(%rbp)
  4069f5:	48 89 75 f0          	mov    %rsi,-0x10(%rbp)
  4069f9:	48 8b 45 f8          	mov    -0x8(%rbp),%rax
  4069fd:	48 3b 45 f0          	cmp    -0x10(%rbp),%rax
  406a01:	74 1b                	je     406a1e <_ZNSt12_Destroy_auxILb0EE9__destroyIP9key_valueEEvT_S4_+0x35>
  406a03:	48 8b 45 f8          	mov    -0x8(%rbp),%rax
  406a07:	48 89 c7             	mov    %rax,%rdi
  406a0a:	e8 7c 01 00 00       	callq  406b8b <_ZSt11__addressofI9key_valueEPT_RS1_>
  406a0f:	48 89 c7             	mov    %rax,%rdi
  406a12:	e8 82 01 00 00       	callq  406b99 <_ZSt8_DestroyI9key_valueEvPT_>
  406a17:	48 83 45 f8 40       	addq   $0x40,-0x8(%rbp)
  406a1c:	eb db                	jmp    4069f9 <_ZNSt12_Destroy_auxILb0EE9__destroyIP9key_valueEEvT_S4_+0x10>
  406a1e:	90                   	nop
  406a1f:	c9                   	leaveq 
  406a20:	c3                   	retq   

0000000000406a21 <_ZSt12__miter_baseIP9key_valueENSt11_Miter_baseIT_E13iterator_typeES3_>:
  406a21:	55                   	push   %rbp
  406a22:	48 89 e5             	mov    %rsp,%rbp
  406a25:	48 83 ec 10          	sub    $0x10,%rsp
  406a29:	48 89 7d f8          	mov    %rdi,-0x8(%rbp)
  406a2d:	48 8b 45 f8          	mov    -0x8(%rbp),%rax
  406a31:	48 89 c7             	mov    %rax,%rdi
  406a34:	e8 7b 01 00 00       	callq  406bb4 <_ZNSt10_Iter_baseIP9key_valueLb0EE7_S_baseES1_>
  406a39:	c9                   	leaveq 
  406a3a:	c3                   	retq   

0000000000406a3b <_ZSt23__copy_move_backward_a2ILb0EP9key_valueS1_ET1_T0_S3_S2_>:
  406a3b:	55                   	push   %rbp
  406a3c:	48 89 e5             	mov    %rsp,%rbp
  406a3f:	41 54                	push   %r12
  406a41:	53                   	push   %rbx
  406a42:	48 83 ec 20          	sub    $0x20,%rsp
  406a46:	48 89 7d e8          	mov    %rdi,-0x18(%rbp)
  406a4a:	48 89 75 e0          	mov    %rsi,-0x20(%rbp)
  406a4e:	48 89 55 d8          	mov    %rdx,-0x28(%rbp)
  406a52:	48 8b 45 d8          	mov    -0x28(%rbp),%rax
  406a56:	48 89 c7             	mov    %rax,%rdi
  406a59:	e8 64 01 00 00       	callq  406bc2 <_ZSt12__niter_baseIP9key_valueENSt11_Niter_baseIT_E13iterator_typeES3_>
  406a5e:	49 89 c4             	mov    %rax,%r12
  406a61:	48 8b 45 e0          	mov    -0x20(%rbp),%rax
  406a65:	48 89 c7             	mov    %rax,%rdi
  406a68:	e8 55 01 00 00       	callq  406bc2 <_ZSt12__niter_baseIP9key_valueENSt11_Niter_baseIT_E13iterator_typeES3_>
  406a6d:	48 89 c3             	mov    %rax,%rbx
  406a70:	48 8b 45 e8          	mov    -0x18(%rbp),%rax
  406a74:	48 89 c7             	mov    %rax,%rdi
  406a77:	e8 46 01 00 00       	callq  406bc2 <_ZSt12__niter_baseIP9key_valueENSt11_Niter_baseIT_E13iterator_typeES3_>
  406a7c:	4c 89 e2             	mov    %r12,%rdx
  406a7f:	48 89 de             	mov    %rbx,%rsi
  406a82:	48 89 c7             	mov    %rax,%rdi
  406a85:	e8 52 01 00 00       	callq  406bdc <_ZSt22__copy_move_backward_aILb0EP9key_valueS1_ET1_T0_S3_S2_>
  406a8a:	48 83 c4 20          	add    $0x20,%rsp
  406a8e:	5b                   	pop    %rbx
  406a8f:	41 5c                	pop    %r12
  406a91:	5d                   	pop    %rbp
  406a92:	c3                   	retq   
  406a93:	90                   	nop

0000000000406a94 <_ZNKSt6vectorI9key_valueSaIS0_EE8max_sizeEv>:
  406a94:	55                   	push   %rbp
  406a95:	48 89 e5             	mov    %rsp,%rbp
  406a98:	48 83 ec 10          	sub    $0x10,%rsp
  406a9c:	48 89 7d f8          	mov    %rdi,-0x8(%rbp)
  406aa0:	48 8b 45 f8          	mov    -0x8(%rbp),%rax
  406aa4:	48 89 c7             	mov    %rax,%rdi
  406aa7:	e8 7c 01 00 00       	callq  406c28 <_ZNKSt12_Vector_baseI9key_valueSaIS0_EE19_M_get_Tp_allocatorEv>
  406aac:	48 89 c7             	mov    %rax,%rdi
  406aaf:	e8 59 01 00 00       	callq  406c0d <_ZN9__gnu_cxx14__alloc_traitsISaI9key_valueEE8max_sizeERKS2_>
  406ab4:	c9                   	leaveq 
  406ab5:	c3                   	retq   

0000000000406ab6 <_ZSt3maxImERKT_S2_S2_>:
  406ab6:	55                   	push   %rbp
  406ab7:	48 89 e5             	mov    %rsp,%rbp
  406aba:	48 89 7d f8          	mov    %rdi,-0x8(%rbp)
  406abe:	48 89 75 f0          	mov    %rsi,-0x10(%rbp)
  406ac2:	48 8b 45 f8          	mov    -0x8(%rbp),%rax
  406ac6:	48 8b 10             	mov    (%rax),%rdx
  406ac9:	48 8b 45 f0          	mov    -0x10(%rbp),%rax
  406acd:	48 8b 00             	mov    (%rax),%rax
  406ad0:	48 39 c2             	cmp    %rax,%rdx
  406ad3:	73 06                	jae    406adb <_ZSt3maxImERKT_S2_S2_+0x25>
  406ad5:	48 8b 45 f0          	mov    -0x10(%rbp),%rax
  406ad9:	eb 04                	jmp    406adf <_ZSt3maxImERKT_S2_S2_+0x29>
  406adb:	48 8b 45 f8          	mov    -0x8(%rbp),%rax
  406adf:	5d                   	pop    %rbp
  406ae0:	c3                   	retq   

0000000000406ae1 <_ZN9__gnu_cxx14__alloc_traitsISaI9key_valueEE8allocateERS2_m>:
  406ae1:	55                   	push   %rbp
  406ae2:	48 89 e5             	mov    %rsp,%rbp
  406ae5:	48 83 ec 10          	sub    $0x10,%rsp
  406ae9:	48 89 7d f8          	mov    %rdi,-0x8(%rbp)
  406aed:	48 89 75 f0          	mov    %rsi,-0x10(%rbp)
  406af1:	48 8b 4d f0          	mov    -0x10(%rbp),%rcx
  406af5:	48 8b 45 f8          	mov    -0x8(%rbp),%rax
  406af9:	ba 00 00 00 00       	mov    $0x0,%edx
  406afe:	48 89 ce             	mov    %rcx,%rsi
  406b01:	48 89 c7             	mov    %rax,%rdi
  406b04:	e8 2d 01 00 00       	callq  406c36 <_ZN9__gnu_cxx13new_allocatorI9key_valueE8allocateEmPKv>
  406b09:	c9                   	leaveq 
  406b0a:	c3                   	retq   

0000000000406b0b <_ZSt22__uninitialized_copy_aIP9key_valueS1_S0_ET0_T_S3_S2_RSaIT1_E>:
  406b0b:	55                   	push   %rbp
  406b0c:	48 89 e5             	mov    %rsp,%rbp
  406b0f:	48 83 ec 20          	sub    $0x20,%rsp
  406b13:	48 89 7d f8          	mov    %rdi,-0x8(%rbp)
  406b17:	48 89 75 f0          	mov    %rsi,-0x10(%rbp)
  406b1b:	48 89 55 e8          	mov    %rdx,-0x18(%rbp)
  406b1f:	48 89 4d e0          	mov    %rcx,-0x20(%rbp)
  406b23:	48 8b 55 e8          	mov    -0x18(%rbp),%rdx
  406b27:	48 8b 4d f0          	mov    -0x10(%rbp),%rcx
  406b2b:	48 8b 45 f8          	mov    -0x8(%rbp),%rax
  406b2f:	48 89 ce             	mov    %rcx,%rsi
  406b32:	48 89 c7             	mov    %rax,%rdi
  406b35:	e8 3e 01 00 00       	callq  406c78 <_ZSt18uninitialized_copyIP9key_valueS1_ET0_T_S3_S2_>
  406b3a:	c9                   	leaveq 
  406b3b:	c3                   	retq   

0000000000406b3c <_ZN9__gnu_cxx13new_allocatorI9key_valueE7destroyEPS1_>:
  406b3c:	55                   	push   %rbp
  406b3d:	48 89 e5             	mov    %rsp,%rbp
  406b40:	48 83 ec 10          	sub    $0x10,%rsp
  406b44:	48 89 7d f8          	mov    %rdi,-0x8(%rbp)
  406b48:	48 89 75 f0          	mov    %rsi,-0x10(%rbp)
  406b4c:	48 8b 45 f0          	mov    -0x10(%rbp),%rax
  406b50:	48 89 c7             	mov    %rax,%rdi
  406b53:	e8 a2 f2 ff ff       	callq  405dfa <_ZN9key_valueD1Ev>
  406b58:	90                   	nop
  406b59:	c9                   	leaveq 
  406b5a:	c3                   	retq   
  406b5b:	90                   	nop

0000000000406b5c <_ZN9__gnu_cxx13new_allocatorI9key_valueEC1Ev>:
  406b5c:	55                   	push   %rbp
  406b5d:	48 89 e5             	mov    %rsp,%rbp
  406b60:	48 89 7d f8          	mov    %rdi,-0x8(%rbp)
  406b64:	90                   	nop
  406b65:	5d                   	pop    %rbp
  406b66:	c3                   	retq   
  406b67:	90                   	nop

0000000000406b68 <_ZN9__gnu_cxx13new_allocatorI9key_valueE10deallocateEPS1_m>:
  406b68:	55                   	push   %rbp
  406b69:	48 89 e5             	mov    %rsp,%rbp
  406b6c:	48 83 ec 20          	sub    $0x20,%rsp
  406b70:	48 89 7d f8          	mov    %rdi,-0x8(%rbp)
  406b74:	48 89 75 f0          	mov    %rsi,-0x10(%rbp)
  406b78:	48 89 55 e8          	mov    %rdx,-0x18(%rbp)
  406b7c:	48 8b 45 f0          	mov    -0x10(%rbp),%rax
  406b80:	48 89 c7             	mov    %rax,%rdi
  406b83:	e8 a8 e4 ff ff       	callq  405030 <_ZdlPv@plt>
  406b88:	90                   	nop
  406b89:	c9                   	leaveq 
  406b8a:	c3                   	retq   

0000000000406b8b <_ZSt11__addressofI9key_valueEPT_RS1_>:
  406b8b:	55                   	push   %rbp
  406b8c:	48 89 e5             	mov    %rsp,%rbp
  406b8f:	48 89 7d f8          	mov    %rdi,-0x8(%rbp)
  406b93:	48 8b 45 f8          	mov    -0x8(%rbp),%rax
  406b97:	5d                   	pop    %rbp
  406b98:	c3                   	retq   

0000000000406b99 <_ZSt8_DestroyI9key_valueEvPT_>:
  406b99:	55                   	push   %rbp
  406b9a:	48 89 e5             	mov    %rsp,%rbp
  406b9d:	48 83 ec 10          	sub    $0x10,%rsp
  406ba1:	48 89 7d f8          	mov    %rdi,-0x8(%rbp)
  406ba5:	48 8b 45 f8          	mov    -0x8(%rbp),%rax
  406ba9:	48 89 c7             	mov    %rax,%rdi
  406bac:	e8 49 f2 ff ff       	callq  405dfa <_ZN9key_valueD1Ev>
  406bb1:	90                   	nop
  406bb2:	c9                   	leaveq 
  406bb3:	c3                   	retq   

0000000000406bb4 <_ZNSt10_Iter_baseIP9key_valueLb0EE7_S_baseES1_>:
  406bb4:	55                   	push   %rbp
  406bb5:	48 89 e5             	mov    %rsp,%rbp
  406bb8:	48 89 7d f8          	mov    %rdi,-0x8(%rbp)
  406bbc:	48 8b 45 f8          	mov    -0x8(%rbp),%rax
  406bc0:	5d                   	pop    %rbp
  406bc1:	c3                   	retq   

0000000000406bc2 <_ZSt12__niter_baseIP9key_valueENSt11_Niter_baseIT_E13iterator_typeES3_>:
  406bc2:	55                   	push   %rbp
  406bc3:	48 89 e5             	mov    %rsp,%rbp
  406bc6:	48 83 ec 10          	sub    $0x10,%rsp
  406bca:	48 89 7d f8          	mov    %rdi,-0x8(%rbp)
  406bce:	48 8b 45 f8          	mov    -0x8(%rbp),%rax
  406bd2:	48 89 c7             	mov    %rax,%rdi
  406bd5:	e8 da ff ff ff       	callq  406bb4 <_ZNSt10_Iter_baseIP9key_valueLb0EE7_S_baseES1_>
  406bda:	c9                   	leaveq 
  406bdb:	c3                   	retq   

0000000000406bdc <_ZSt22__copy_move_backward_aILb0EP9key_valueS1_ET1_T0_S3_S2_>:
  406bdc:	55                   	push   %rbp
  406bdd:	48 89 e5             	mov    %rsp,%rbp
  406be0:	48 83 ec 30          	sub    $0x30,%rsp
  406be4:	48 89 7d e8          	mov    %rdi,-0x18(%rbp)
  406be8:	48 89 75 e0          	mov    %rsi,-0x20(%rbp)
  406bec:	48 89 55 d8          	mov    %rdx,-0x28(%rbp)
  406bf0:	c6 45 ff 00          	movb   $0x0,-0x1(%rbp)
  406bf4:	48 8b 55 d8          	mov    -0x28(%rbp),%rdx
  406bf8:	48 8b 4d e0          	mov    -0x20(%rbp),%rcx
  406bfc:	48 8b 45 e8          	mov    -0x18(%rbp),%rax
  406c00:	48 89 ce             	mov    %rcx,%rsi
  406c03:	48 89 c7             	mov    %rax,%rdi
  406c06:	e8 9e 00 00 00       	callq  406ca9 <_ZNSt20__copy_move_backwardILb0ELb0ESt26random_access_iterator_tagE13__copy_move_bIP9key_valueS4_EET0_T_S6_S5_>
  406c0b:	c9                   	leaveq 
  406c0c:	c3                   	retq   

0000000000406c0d <_ZN9__gnu_cxx14__alloc_traitsISaI9key_valueEE8max_sizeERKS2_>:
  406c0d:	55                   	push   %rbp
  406c0e:	48 89 e5             	mov    %rsp,%rbp
  406c11:	48 83 ec 10          	sub    $0x10,%rsp
  406c15:	48 89 7d f8          	mov    %rdi,-0x8(%rbp)
  406c19:	48 8b 45 f8          	mov    -0x8(%rbp),%rax
  406c1d:	48 89 c7             	mov    %rax,%rdi
  406c20:	e8 df 00 00 00       	callq  406d04 <_ZNK9__gnu_cxx13new_allocatorI9key_valueE8max_sizeEv>
  406c25:	c9                   	leaveq 
  406c26:	c3                   	retq   
  406c27:	90                   	nop

0000000000406c28 <_ZNKSt12_Vector_baseI9key_valueSaIS0_EE19_M_get_Tp_allocatorEv>:
  406c28:	55                   	push   %rbp
  406c29:	48 89 e5             	mov    %rsp,%rbp
  406c2c:	48 89 7d f8          	mov    %rdi,-0x8(%rbp)
  406c30:	48 8b 45 f8          	mov    -0x8(%rbp),%rax
  406c34:	5d                   	pop    %rbp
  406c35:	c3                   	retq   

0000000000406c36 <_ZN9__gnu_cxx13new_allocatorI9key_valueE8allocateEmPKv>:
  406c36:	55                   	push   %rbp
  406c37:	48 89 e5             	mov    %rsp,%rbp
  406c3a:	48 83 ec 20          	sub    $0x20,%rsp
  406c3e:	48 89 7d f8          	mov    %rdi,-0x8(%rbp)
  406c42:	48 89 75 f0          	mov    %rsi,-0x10(%rbp)
  406c46:	48 89 55 e8          	mov    %rdx,-0x18(%rbp)
  406c4a:	48 8b 45 f8          	mov    -0x8(%rbp),%rax
  406c4e:	48 89 c7             	mov    %rax,%rdi
  406c51:	e8 ae 00 00 00       	callq  406d04 <_ZNK9__gnu_cxx13new_allocatorI9key_valueE8max_sizeEv>
  406c56:	48 3b 45 f0          	cmp    -0x10(%rbp),%rax
  406c5a:	0f 92 c0             	setb   %al
  406c5d:	84 c0                	test   %al,%al
  406c5f:	74 05                	je     406c66 <_ZN9__gnu_cxx13new_allocatorI9key_valueE8allocateEmPKv+0x30>
  406c61:	e8 2a e6 ff ff       	callq  405290 <_ZSt17__throw_bad_allocv@plt>
  406c66:	48 8b 45 f0          	mov    -0x10(%rbp),%rax
  406c6a:	48 c1 e0 06          	shl    $0x6,%rax
  406c6e:	48 89 c7             	mov    %rax,%rdi
  406c71:	e8 ba e6 ff ff       	callq  405330 <_Znwm@plt>
  406c76:	c9                   	leaveq 
  406c77:	c3                   	retq   

0000000000406c78 <_ZSt18uninitialized_copyIP9key_valueS1_ET0_T_S3_S2_>:
  406c78:	55                   	push   %rbp
  406c79:	48 89 e5             	mov    %rsp,%rbp
  406c7c:	48 83 ec 30          	sub    $0x30,%rsp
  406c80:	48 89 7d e8          	mov    %rdi,-0x18(%rbp)
  406c84:	48 89 75 e0          	mov    %rsi,-0x20(%rbp)
  406c88:	48 89 55 d8          	mov    %rdx,-0x28(%rbp)
  406c8c:	c6 45 ff 01          	movb   $0x1,-0x1(%rbp)
  406c90:	48 8b 55 d8          	mov    -0x28(%rbp),%rdx
  406c94:	48 8b 4d e0          	mov    -0x20(%rbp),%rcx
  406c98:	48 8b 45 e8          	mov    -0x18(%rbp),%rax
  406c9c:	48 89 ce             	mov    %rcx,%rsi
  406c9f:	48 89 c7             	mov    %rax,%rdi
  406ca2:	e8 71 00 00 00       	callq  406d18 <_ZNSt20__uninitialized_copyILb0EE13__uninit_copyIP9key_valueS3_EET0_T_S5_S4_>
  406ca7:	c9                   	leaveq 
  406ca8:	c3                   	retq   

0000000000406ca9 <_ZNSt20__copy_move_backwardILb0ELb0ESt26random_access_iterator_tagE13__copy_move_bIP9key_valueS4_EET0_T_S6_S5_>:
  406ca9:	55                   	push   %rbp
  406caa:	48 89 e5             	mov    %rsp,%rbp
  406cad:	48 83 ec 30          	sub    $0x30,%rsp
  406cb1:	48 89 7d e8          	mov    %rdi,-0x18(%rbp)
  406cb5:	48 89 75 e0          	mov    %rsi,-0x20(%rbp)
  406cb9:	48 89 55 d8          	mov    %rdx,-0x28(%rbp)
  406cbd:	48 8b 55 e0          	mov    -0x20(%rbp),%rdx
  406cc1:	48 8b 45 e8          	mov    -0x18(%rbp),%rax
  406cc5:	48 29 c2             	sub    %rax,%rdx
  406cc8:	48 89 d0             	mov    %rdx,%rax
  406ccb:	48 c1 f8 06          	sar    $0x6,%rax
  406ccf:	48 89 45 f8          	mov    %rax,-0x8(%rbp)
  406cd3:	48 83 7d f8 00       	cmpq   $0x0,-0x8(%rbp)
  406cd8:	7e 24                	jle    406cfe <_ZNSt20__copy_move_backwardILb0ELb0ESt26random_access_iterator_tagE13__copy_move_bIP9key_valueS4_EET0_T_S6_S5_+0x55>
  406cda:	48 83 6d e0 40       	subq   $0x40,-0x20(%rbp)
  406cdf:	48 83 6d d8 40       	subq   $0x40,-0x28(%rbp)
  406ce4:	48 8b 55 e0          	mov    -0x20(%rbp),%rdx
  406ce8:	48 8b 45 d8          	mov    -0x28(%rbp),%rax
  406cec:	48 89 d6             	mov    %rdx,%rsi
  406cef:	48 89 c7             	mov    %rax,%rdi
  406cf2:	e8 9b f4 ff ff       	callq  406192 <_ZN9key_valueaSERKS_>
  406cf7:	48 83 6d f8 01       	subq   $0x1,-0x8(%rbp)
  406cfc:	eb d5                	jmp    406cd3 <_ZNSt20__copy_move_backwardILb0ELb0ESt26random_access_iterator_tagE13__copy_move_bIP9key_valueS4_EET0_T_S6_S5_+0x2a>
  406cfe:	48 8b 45 d8          	mov    -0x28(%rbp),%rax
  406d02:	c9                   	leaveq 
  406d03:	c3                   	retq   

0000000000406d04 <_ZNK9__gnu_cxx13new_allocatorI9key_valueE8max_sizeEv>:
  406d04:	55                   	push   %rbp
  406d05:	48 89 e5             	mov    %rsp,%rbp
  406d08:	48 89 7d f8          	mov    %rdi,-0x8(%rbp)
  406d0c:	48 b8 ff ff ff ff ff 	movabs $0x3ffffffffffffff,%rax
  406d13:	ff ff 03 
  406d16:	5d                   	pop    %rbp
  406d17:	c3                   	retq   

0000000000406d18 <_ZNSt20__uninitialized_copyILb0EE13__uninit_copyIP9key_valueS3_EET0_T_S5_S4_>:
  406d18:	55                   	push   %rbp
  406d19:	48 89 e5             	mov    %rsp,%rbp
  406d1c:	53                   	push   %rbx
  406d1d:	48 83 ec 38          	sub    $0x38,%rsp
  406d21:	48 89 7d d8          	mov    %rdi,-0x28(%rbp)
  406d25:	48 89 75 d0          	mov    %rsi,-0x30(%rbp)
  406d29:	48 89 55 c8          	mov    %rdx,-0x38(%rbp)
  406d2d:	48 8b 45 c8          	mov    -0x38(%rbp),%rax
  406d31:	48 89 45 e8          	mov    %rax,-0x18(%rbp)
  406d35:	48 8b 45 d8          	mov    -0x28(%rbp),%rax
  406d39:	48 3b 45 d0          	cmp    -0x30(%rbp),%rax
  406d3d:	74 2a                	je     406d69 <_ZNSt20__uninitialized_copyILb0EE13__uninit_copyIP9key_valueS3_EET0_T_S5_S4_+0x51>
  406d3f:	48 8b 45 e8          	mov    -0x18(%rbp),%rax
  406d43:	48 89 c7             	mov    %rax,%rdi
  406d46:	e8 40 fe ff ff       	callq  406b8b <_ZSt11__addressofI9key_valueEPT_RS1_>
  406d4b:	48 89 c2             	mov    %rax,%rdx
  406d4e:	48 8b 45 d8          	mov    -0x28(%rbp),%rax
  406d52:	48 89 c6             	mov    %rax,%rsi
  406d55:	48 89 d7             	mov    %rdx,%rdi
  406d58:	e8 4c 00 00 00       	callq  406da9 <_ZSt10_ConstructI9key_valueS0_EvPT_RKT0_>
  406d5d:	48 83 45 d8 40       	addq   $0x40,-0x28(%rbp)
  406d62:	48 83 45 e8 40       	addq   $0x40,-0x18(%rbp)
  406d67:	eb cc                	jmp    406d35 <_ZNSt20__uninitialized_copyILb0EE13__uninit_copyIP9key_valueS3_EET0_T_S5_S4_+0x1d>
  406d69:	48 8b 45 e8          	mov    -0x18(%rbp),%rax
  406d6d:	eb 33                	jmp    406da2 <_ZNSt20__uninitialized_copyILb0EE13__uninit_copyIP9key_valueS3_EET0_T_S5_S4_+0x8a>
  406d6f:	48 89 c7             	mov    %rax,%rdi
  406d72:	e8 49 e5 ff ff       	callq  4052c0 <__cxa_begin_catch@plt>
  406d77:	48 8b 55 e8          	mov    -0x18(%rbp),%rdx
  406d7b:	48 8b 45 c8          	mov    -0x38(%rbp),%rax
  406d7f:	48 89 d6             	mov    %rdx,%rsi
  406d82:	48 89 c7             	mov    %rax,%rdi
  406d85:	e8 ed f8 ff ff       	callq  406677 <_ZSt8_DestroyIP9key_valueEvT_S2_>
  406d8a:	e8 e1 e2 ff ff       	callq  405070 <__cxa_rethrow@plt>
  406d8f:	48 89 c3             	mov    %rax,%rbx
  406d92:	e8 e9 e4 ff ff       	callq  405280 <__cxa_end_catch@plt>
  406d97:	48 89 d8             	mov    %rbx,%rax
  406d9a:	48 89 c7             	mov    %rax,%rdi
  406d9d:	e8 9e e5 ff ff       	callq  405340 <_Unwind_Resume@plt>
  406da2:	48 83 c4 38          	add    $0x38,%rsp
  406da6:	5b                   	pop    %rbx
  406da7:	5d                   	pop    %rbp
  406da8:	c3                   	retq   

0000000000406da9 <_ZSt10_ConstructI9key_valueS0_EvPT_RKT0_>:
  406da9:	55                   	push   %rbp
  406daa:	48 89 e5             	mov    %rsp,%rbp
  406dad:	41 55                	push   %r13
  406daf:	41 54                	push   %r12
  406db1:	53                   	push   %rbx
  406db2:	48 83 ec 18          	sub    $0x18,%rsp
  406db6:	48 89 7d d8          	mov    %rdi,-0x28(%rbp)
  406dba:	48 89 75 d0          	mov    %rsi,-0x30(%rbp)
  406dbe:	4c 8b 65 d8          	mov    -0x28(%rbp),%r12
  406dc2:	4c 89 e6             	mov    %r12,%rsi
  406dc5:	bf 40 00 00 00       	mov    $0x40,%edi
  406dca:	e8 bd ef ff ff       	callq  405d8c <_ZnwmPv>
  406dcf:	48 89 c3             	mov    %rax,%rbx
  406dd2:	48 85 db             	test   %rbx,%rbx
  406dd5:	74 2a                	je     406e01 <_ZSt10_ConstructI9key_valueS0_EvPT_RKT0_+0x58>
  406dd7:	48 8b 45 d0          	mov    -0x30(%rbp),%rax
  406ddb:	48 89 c6             	mov    %rax,%rsi
  406dde:	48 89 df             	mov    %rbx,%rdi
  406de1:	e8 4a f3 ff ff       	callq  406130 <_ZN9key_valueC1ERKS_>
  406de6:	eb 19                	jmp    406e01 <_ZSt10_ConstructI9key_valueS0_EvPT_RKT0_+0x58>
  406de8:	49 89 c5             	mov    %rax,%r13
  406deb:	4c 89 e6             	mov    %r12,%rsi
  406dee:	48 89 df             	mov    %rbx,%rdi
  406df1:	e8 a8 ef ff ff       	callq  405d9e <_ZdlPvS_>
  406df6:	4c 89 e8             	mov    %r13,%rax
  406df9:	48 89 c7             	mov    %rax,%rdi
  406dfc:	e8 3f e5 ff ff       	callq  405340 <_Unwind_Resume@plt>
  406e01:	90                   	nop
  406e02:	48 83 c4 18          	add    $0x18,%rsp
  406e06:	5b                   	pop    %rbx
  406e07:	41 5c                	pop    %r12
  406e09:	41 5d                	pop    %r13
  406e0b:	5d                   	pop    %rbp
  406e0c:	c3                   	retq   

0000000000406e0d <douyusockt_init>:
  406e0d:	55                   	push   %rbp
  406e0e:	48 89 e5             	mov    %rsp,%rbp
  406e11:	48 83 ec 30          	sub    $0x30,%rsp
  406e15:	48 89 7d e8          	mov    %rdi,-0x18(%rbp)
  406e19:	89 75 e4             	mov    %esi,-0x1c(%rbp)
  406e1c:	89 55 e0             	mov    %edx,-0x20(%rbp)
  406e1f:	89 4d dc             	mov    %ecx,-0x24(%rbp)
  406e22:	48 83 7d e8 00       	cmpq   $0x0,-0x18(%rbp)
  406e27:	75 0f                	jne    406e38 <douyusockt_init+0x2b>
  406e29:	c7 45 f0 b9 0b 00 00 	movl   $0xbb9,-0x10(%rbp)
  406e30:	8b 45 f0             	mov    -0x10(%rbp),%eax
  406e33:	e9 c2 00 00 00       	jmpq   406efa <douyusockt_init+0xed>
  406e38:	bf 20 00 00 00       	mov    $0x20,%edi
  406e3d:	e8 7e e2 ff ff       	callq  4050c0 <malloc@plt>
  406e42:	48 89 45 f8          	mov    %rax,-0x8(%rbp)
  406e46:	48 83 7d f8 00       	cmpq   $0x0,-0x8(%rbp)
  406e4b:	75 0f                	jne    406e5c <douyusockt_init+0x4f>
  406e4d:	c7 45 f0 bc 0b 00 00 	movl   $0xbbc,-0x10(%rbp)
  406e54:	8b 45 f0             	mov    -0x10(%rbp),%eax
  406e57:	e9 9e 00 00 00       	jmpq   406efa <douyusockt_init+0xed>
  406e5c:	48 8b 45 f8          	mov    -0x8(%rbp),%rax
  406e60:	8b 55 e4             	mov    -0x1c(%rbp),%edx
  406e63:	89 50 14             	mov    %edx,0x14(%rax)
  406e66:	48 8b 45 f8          	mov    -0x8(%rbp),%rax
  406e6a:	8b 55 dc             	mov    -0x24(%rbp),%edx
  406e6d:	89 50 1c             	mov    %edx,0x1c(%rax)
  406e70:	48 8b 45 f8          	mov    -0x8(%rbp),%rax
  406e74:	8b 55 e0             	mov    -0x20(%rbp),%edx
  406e77:	89 50 18             	mov    %edx,0x18(%rax)
  406e7a:	bf 00 3c 00 00       	mov    $0x3c00,%edi
  406e7f:	e8 3c e2 ff ff       	callq  4050c0 <malloc@plt>
  406e84:	48 89 c2             	mov    %rax,%rdx
  406e87:	48 8b 45 f8          	mov    -0x8(%rbp),%rax
  406e8b:	48 89 50 08          	mov    %rdx,0x8(%rax)
  406e8f:	48 8b 45 f8          	mov    -0x8(%rbp),%rax
  406e93:	48 8b 40 08          	mov    0x8(%rax),%rax
  406e97:	48 85 c0             	test   %rax,%rax
  406e9a:	75 0c                	jne    406ea8 <douyusockt_init+0x9b>
  406e9c:	c7 45 f0 bc 0b 00 00 	movl   $0xbbc,-0x10(%rbp)
  406ea3:	8b 45 f0             	mov    -0x10(%rbp),%eax
  406ea6:	eb 52                	jmp    406efa <douyusockt_init+0xed>
  406ea8:	48 8b 45 f8          	mov    -0x8(%rbp),%rax
  406eac:	c7 40 10 00 3c 00 00 	movl   $0x3c00,0x10(%rax)
  406eb3:	ba 00 00 00 00       	mov    $0x0,%edx
  406eb8:	be 01 00 00 00       	mov    $0x1,%esi
  406ebd:	bf 02 00 00 00       	mov    $0x2,%edi
  406ec2:	e8 19 e3 ff ff       	callq  4051e0 <socket@plt>
  406ec7:	89 45 f4             	mov    %eax,-0xc(%rbp)
  406eca:	83 7d f4 ff          	cmpl   $0xffffffff,-0xc(%rbp)
  406ece:	75 11                	jne    406ee1 <douyusockt_init+0xd4>
  406ed0:	bf e0 9a 40 00       	mov    $0x409ae0,%edi
  406ed5:	e8 46 e1 ff ff       	callq  405020 <puts@plt>
  406eda:	b8 ff ff ff ff       	mov    $0xffffffff,%eax
  406edf:	eb 19                	jmp    406efa <douyusockt_init+0xed>
  406ee1:	48 8b 45 f8          	mov    -0x8(%rbp),%rax
  406ee5:	8b 55 f4             	mov    -0xc(%rbp),%edx
  406ee8:	89 10                	mov    %edx,(%rax)
  406eea:	48 8b 45 e8          	mov    -0x18(%rbp),%rax
  406eee:	48 8b 55 f8          	mov    -0x8(%rbp),%rdx
  406ef2:	48 89 10             	mov    %rdx,(%rax)
  406ef5:	b8 00 00 00 00       	mov    $0x0,%eax
  406efa:	c9                   	leaveq 
  406efb:	c3                   	retq   

0000000000406efc <douyusockt_destroy>:
  406efc:	55                   	push   %rbp
  406efd:	48 89 e5             	mov    %rsp,%rbp
  406f00:	48 83 ec 20          	sub    $0x20,%rsp
  406f04:	48 89 7d e8          	mov    %rdi,-0x18(%rbp)
  406f08:	48 83 7d e8 00       	cmpq   $0x0,-0x18(%rbp)
  406f0d:	75 0c                	jne    406f1b <douyusockt_destroy+0x1f>
  406f0f:	c7 45 f4 b9 0b 00 00 	movl   $0xbb9,-0xc(%rbp)
  406f16:	8b 45 f4             	mov    -0xc(%rbp),%eax
  406f19:	eb 47                	jmp    406f62 <douyusockt_destroy+0x66>
  406f1b:	48 8b 45 e8          	mov    -0x18(%rbp),%rax
  406f1f:	48 89 45 f8          	mov    %rax,-0x8(%rbp)
  406f23:	48 8b 45 f8          	mov    -0x8(%rbp),%rax
  406f27:	48 8b 40 08          	mov    0x8(%rax),%rax
  406f2b:	48 85 c0             	test   %rax,%rax
  406f2e:	74 1c                	je     406f4c <douyusockt_destroy+0x50>
  406f30:	48 8b 45 f8          	mov    -0x8(%rbp),%rax
  406f34:	48 8b 40 08          	mov    0x8(%rax),%rax
  406f38:	48 89 c7             	mov    %rax,%rdi
  406f3b:	e8 f0 e1 ff ff       	callq  405130 <free@plt>
  406f40:	48 8b 45 f8          	mov    -0x8(%rbp),%rax
  406f44:	48 c7 40 08 00 00 00 	movq   $0x0,0x8(%rax)
  406f4b:	00 
  406f4c:	48 83 7d e8 00       	cmpq   $0x0,-0x18(%rbp)
  406f51:	74 0c                	je     406f5f <douyusockt_destroy+0x63>
  406f53:	48 8b 45 e8          	mov    -0x18(%rbp),%rax
  406f57:	48 89 c7             	mov    %rax,%rdi
  406f5a:	e8 d1 e1 ff ff       	callq  405130 <free@plt>
  406f5f:	8b 45 f4             	mov    -0xc(%rbp),%eax
  406f62:	c9                   	leaveq 
  406f63:	c3                   	retq   

0000000000406f64 <_ZL19deactivate_nonblocki>:
  406f64:	55                   	push   %rbp
  406f65:	48 89 e5             	mov    %rsp,%rbp
  406f68:	48 83 ec 20          	sub    $0x20,%rsp
  406f6c:	89 7d ec             	mov    %edi,-0x14(%rbp)
  406f6f:	c7 45 f8 00 00 00 00 	movl   $0x0,-0x8(%rbp)
  406f76:	8b 45 ec             	mov    -0x14(%rbp),%eax
  406f79:	be 03 00 00 00       	mov    $0x3,%esi
  406f7e:	89 c7                	mov    %eax,%edi
  406f80:	b8 00 00 00 00       	mov    $0x0,%eax
  406f85:	e8 e6 e3 ff ff       	callq  405370 <fcntl@plt>
  406f8a:	89 45 fc             	mov    %eax,-0x4(%rbp)
  406f8d:	83 7d fc ff          	cmpl   $0xffffffff,-0x4(%rbp)
  406f91:	75 15                	jne    406fa8 <_ZL19deactivate_nonblocki+0x44>
  406f93:	8b 45 fc             	mov    -0x4(%rbp),%eax
  406f96:	89 45 f8             	mov    %eax,-0x8(%rbp)
  406f99:	bf ed 9a 40 00       	mov    $0x409aed,%edi
  406f9e:	e8 7d e0 ff ff       	callq  405020 <puts@plt>
  406fa3:	8b 45 f8             	mov    -0x8(%rbp),%eax
  406fa6:	eb 40                	jmp    406fe8 <_ZL19deactivate_nonblocki+0x84>
  406fa8:	81 65 fc ff f7 ff ff 	andl   $0xfffff7ff,-0x4(%rbp)
  406faf:	8b 55 fc             	mov    -0x4(%rbp),%edx
  406fb2:	8b 45 ec             	mov    -0x14(%rbp),%eax
  406fb5:	be 04 00 00 00       	mov    $0x4,%esi
  406fba:	89 c7                	mov    %eax,%edi
  406fbc:	b8 00 00 00 00       	mov    $0x0,%eax
  406fc1:	e8 aa e3 ff ff       	callq  405370 <fcntl@plt>
  406fc6:	89 45 f8             	mov    %eax,-0x8(%rbp)
  406fc9:	83 7d f8 ff          	cmpl   $0xffffffff,-0x8(%rbp)
  406fcd:	75 19                	jne    406fe8 <_ZL19deactivate_nonblocki+0x84>
  406fcf:	e8 1c e2 ff ff       	callq  4051f0 <__errno_location@plt>
  406fd4:	8b 00                	mov    (%rax),%eax
  406fd6:	89 45 f8             	mov    %eax,-0x8(%rbp)
  406fd9:	bf f8 9a 40 00       	mov    $0x409af8,%edi
  406fde:	e8 3d e0 ff ff       	callq  405020 <puts@plt>
  406fe3:	8b 45 f8             	mov    -0x8(%rbp),%eax
  406fe6:	eb 00                	jmp    406fe8 <_ZL19deactivate_nonblocki+0x84>
  406fe8:	c9                   	leaveq 
  406fe9:	c3                   	retq   

0000000000406fea <_ZL17activate_nonblocki>:
  406fea:	55                   	push   %rbp
  406feb:	48 89 e5             	mov    %rsp,%rbp
  406fee:	48 83 ec 20          	sub    $0x20,%rsp
  406ff2:	89 7d ec             	mov    %edi,-0x14(%rbp)
  406ff5:	c7 45 f8 00 00 00 00 	movl   $0x0,-0x8(%rbp)
  406ffc:	8b 45 ec             	mov    -0x14(%rbp),%eax
  406fff:	be 03 00 00 00       	mov    $0x3,%esi
  407004:	89 c7                	mov    %eax,%edi
  407006:	b8 00 00 00 00       	mov    $0x0,%eax
  40700b:	e8 60 e3 ff ff       	callq  405370 <fcntl@plt>
  407010:	89 45 fc             	mov    %eax,-0x4(%rbp)
  407013:	83 7d fc ff          	cmpl   $0xffffffff,-0x4(%rbp)
  407017:	75 15                	jne    40702e <_ZL17activate_nonblocki+0x44>
  407019:	8b 45 fc             	mov    -0x4(%rbp),%eax
  40701c:	89 45 f8             	mov    %eax,-0x8(%rbp)
  40701f:	bf ed 9a 40 00       	mov    $0x409aed,%edi
  407024:	e8 f7 df ff ff       	callq  405020 <puts@plt>
  407029:	8b 45 f8             	mov    -0x8(%rbp),%eax
  40702c:	eb 40                	jmp    40706e <_ZL17activate_nonblocki+0x84>
  40702e:	81 4d fc 00 08 00 00 	orl    $0x800,-0x4(%rbp)
  407035:	8b 55 fc             	mov    -0x4(%rbp),%edx
  407038:	8b 45 ec             	mov    -0x14(%rbp),%eax
  40703b:	be 04 00 00 00       	mov    $0x4,%esi
  407040:	89 c7                	mov    %eax,%edi
  407042:	b8 00 00 00 00       	mov    $0x0,%eax
  407047:	e8 24 e3 ff ff       	callq  405370 <fcntl@plt>
  40704c:	89 45 f8             	mov    %eax,-0x8(%rbp)
  40704f:	83 7d f8 ff          	cmpl   $0xffffffff,-0x8(%rbp)
  407053:	75 19                	jne    40706e <_ZL17activate_nonblocki+0x84>
  407055:	e8 96 e1 ff ff       	callq  4051f0 <__errno_location@plt>
  40705a:	8b 00                	mov    (%rax),%eax
  40705c:	89 45 f8             	mov    %eax,-0x8(%rbp)
  40705f:	bf f8 9a 40 00       	mov    $0x409af8,%edi
  407064:	e8 b7 df ff ff       	callq  405020 <puts@plt>
  407069:	8b 45 f8             	mov    -0x8(%rbp),%eax
  40706c:	eb 00                	jmp    40706e <_ZL17activate_nonblocki+0x84>
  40706e:	c9                   	leaveq 
  40706f:	c3                   	retq   

0000000000407070 <_ZL16connect_tinmeoutiP11sockaddr_inj>:
  407070:	55                   	push   %rbp
  407071:	48 89 e5             	mov    %rsp,%rbp
  407074:	48 81 ec d0 00 00 00 	sub    $0xd0,%rsp
  40707b:	89 bd 3c ff ff ff    	mov    %edi,-0xc4(%rbp)
  407081:	48 89 b5 30 ff ff ff 	mov    %rsi,-0xd0(%rbp)
  407088:	89 95 38 ff ff ff    	mov    %edx,-0xc8(%rbp)
  40708e:	64 48 8b 04 25 28 00 	mov    %fs:0x28,%rax
  407095:	00 00 
  407097:	48 89 45 f8          	mov    %rax,-0x8(%rbp)
  40709b:	31 c0                	xor    %eax,%eax
  40709d:	c7 85 50 ff ff ff 10 	movl   $0x10,-0xb0(%rbp)
  4070a4:	00 00 00 
  4070a7:	83 bd 38 ff ff ff 00 	cmpl   $0x0,-0xc8(%rbp)
  4070ae:	74 0d                	je     4070bd <_ZL16connect_tinmeoutiP11sockaddr_inj+0x4d>
  4070b0:	8b 85 3c ff ff ff    	mov    -0xc4(%rbp),%eax
  4070b6:	89 c7                	mov    %eax,%edi
  4070b8:	e8 2d ff ff ff       	callq  406fea <_ZL17activate_nonblocki>
  4070bd:	8b 95 50 ff ff ff    	mov    -0xb0(%rbp),%edx
  4070c3:	48 8b 8d 30 ff ff ff 	mov    -0xd0(%rbp),%rcx
  4070ca:	8b 85 3c ff ff ff    	mov    -0xc4(%rbp),%eax
  4070d0:	48 89 ce             	mov    %rcx,%rsi
  4070d3:	89 c7                	mov    %eax,%edi
  4070d5:	e8 d6 e0 ff ff       	callq  4051b0 <connect@plt>
  4070da:	89 85 4c ff ff ff    	mov    %eax,-0xb4(%rbp)
  4070e0:	83 bd 4c ff ff ff 00 	cmpl   $0x0,-0xb4(%rbp)
  4070e7:	0f 89 ab 01 00 00    	jns    407298 <_ZL16connect_tinmeoutiP11sockaddr_inj+0x228>
  4070ed:	e8 fe e0 ff ff       	callq  4051f0 <__errno_location@plt>
  4070f2:	8b 00                	mov    (%rax),%eax
  4070f4:	83 f8 73             	cmp    $0x73,%eax
  4070f7:	0f 85 9b 01 00 00    	jne    407298 <_ZL16connect_tinmeoutiP11sockaddr_inj+0x228>
  4070fd:	b9 10 00 00 00       	mov    $0x10,%ecx
  407102:	b8 00 00 00 00       	mov    $0x0,%eax
  407107:	48 8d 95 70 ff ff ff 	lea    -0x90(%rbp),%rdx
  40710e:	48 89 d7             	mov    %rdx,%rdi
  407111:	fc                   	cld    
  407112:	f3 48 ab             	rep stos %rax,%es:(%rdi)
  407115:	89 f8                	mov    %edi,%eax
  407117:	89 ca                	mov    %ecx,%edx
  407119:	89 95 54 ff ff ff    	mov    %edx,-0xac(%rbp)
  40711f:	89 85 58 ff ff ff    	mov    %eax,-0xa8(%rbp)
  407125:	b8 08 00 00 00       	mov    $0x8,%eax
  40712a:	8d 34 c5 00 00 00 00 	lea    0x0(,%rax,8),%esi
  407131:	8b 85 3c ff ff ff    	mov    -0xc4(%rbp),%eax
  407137:	99                   	cltd   
  407138:	f7 fe                	idiv   %esi
  40713a:	89 c6                	mov    %eax,%esi
  40713c:	48 63 c6             	movslq %esi,%rax
  40713f:	48 8b bc c5 70 ff ff 	mov    -0x90(%rbp,%rax,8),%rdi
  407146:	ff 
  407147:	b8 08 00 00 00       	mov    $0x8,%eax
  40714c:	8d 0c c5 00 00 00 00 	lea    0x0(,%rax,8),%ecx
  407153:	8b 85 3c ff ff ff    	mov    -0xc4(%rbp),%eax
  407159:	99                   	cltd   
  40715a:	f7 f9                	idiv   %ecx
  40715c:	89 d0                	mov    %edx,%eax
  40715e:	ba 01 00 00 00       	mov    $0x1,%edx
  407163:	89 c1                	mov    %eax,%ecx
  407165:	48 d3 e2             	shl    %cl,%rdx
  407168:	48 89 d0             	mov    %rdx,%rax
  40716b:	48 09 c7             	or     %rax,%rdi
  40716e:	48 89 fa             	mov    %rdi,%rdx
  407171:	48 63 c6             	movslq %esi,%rax
  407174:	48 89 94 c5 70 ff ff 	mov    %rdx,-0x90(%rbp,%rax,8)
  40717b:	ff 
  40717c:	8b 85 38 ff ff ff    	mov    -0xc8(%rbp),%eax
  407182:	48 89 85 60 ff ff ff 	mov    %rax,-0xa0(%rbp)
  407189:	48 c7 85 68 ff ff ff 	movq   $0x0,-0x98(%rbp)
  407190:	00 00 00 00 
  407194:	8b 85 3c ff ff ff    	mov    -0xc4(%rbp),%eax
  40719a:	8d 78 01             	lea    0x1(%rax),%edi
  40719d:	48 8d 95 60 ff ff ff 	lea    -0xa0(%rbp),%rdx
  4071a4:	48 8d 85 70 ff ff ff 	lea    -0x90(%rbp),%rax
  4071ab:	49 89 d0             	mov    %rdx,%r8
  4071ae:	b9 00 00 00 00       	mov    $0x0,%ecx
  4071b3:	48 89 c2             	mov    %rax,%rdx
  4071b6:	be 00 00 00 00       	mov    $0x0,%esi
  4071bb:	e8 90 de ff ff       	callq  405050 <select@plt>
  4071c0:	89 85 4c ff ff ff    	mov    %eax,-0xb4(%rbp)
  4071c6:	83 bd 4c ff ff ff 00 	cmpl   $0x0,-0xb4(%rbp)
  4071cd:	79 0e                	jns    4071dd <_ZL16connect_tinmeoutiP11sockaddr_inj+0x16d>
  4071cf:	e8 1c e0 ff ff       	callq  4051f0 <__errno_location@plt>
  4071d4:	8b 00                	mov    (%rax),%eax
  4071d6:	83 f8 04             	cmp    $0x4,%eax
  4071d9:	75 02                	jne    4071dd <_ZL16connect_tinmeoutiP11sockaddr_inj+0x16d>
  4071db:	eb b7                	jmp    407194 <_ZL16connect_tinmeoutiP11sockaddr_inj+0x124>
  4071dd:	83 bd 4c ff ff ff 00 	cmpl   $0x0,-0xb4(%rbp)
  4071e4:	75 1a                	jne    407200 <_ZL16connect_tinmeoutiP11sockaddr_inj+0x190>
  4071e6:	c7 85 4c ff ff ff ff 	movl   $0xffffffff,-0xb4(%rbp)
  4071ed:	ff ff ff 
  4071f0:	e8 fb df ff ff       	callq  4051f0 <__errno_location@plt>
  4071f5:	c7 00 6e 00 00 00    	movl   $0x6e,(%rax)
  4071fb:	e9 98 00 00 00       	jmpq   407298 <_ZL16connect_tinmeoutiP11sockaddr_inj+0x228>
  407200:	83 bd 4c ff ff ff 00 	cmpl   $0x0,-0xb4(%rbp)
  407207:	79 0a                	jns    407213 <_ZL16connect_tinmeoutiP11sockaddr_inj+0x1a3>
  407209:	b8 ff ff ff ff       	mov    $0xffffffff,%eax
  40720e:	e9 a1 00 00 00       	jmpq   4072b4 <_ZL16connect_tinmeoutiP11sockaddr_inj+0x244>
  407213:	83 bd 4c ff ff ff 01 	cmpl   $0x1,-0xb4(%rbp)
  40721a:	75 7c                	jne    407298 <_ZL16connect_tinmeoutiP11sockaddr_inj+0x228>
  40721c:	b8 04 00 00 00       	mov    $0x4,%eax
  407221:	89 85 48 ff ff ff    	mov    %eax,-0xb8(%rbp)
  407227:	48 8d 8d 48 ff ff ff 	lea    -0xb8(%rbp),%rcx
  40722e:	48 8d 95 44 ff ff ff 	lea    -0xbc(%rbp),%rdx
  407235:	8b 85 3c ff ff ff    	mov    -0xc4(%rbp),%eax
  40723b:	49 89 c8             	mov    %rcx,%r8
  40723e:	48 89 d1             	mov    %rdx,%rcx
  407241:	ba 04 00 00 00       	mov    $0x4,%edx
  407246:	be 01 00 00 00       	mov    $0x1,%esi
  40724b:	89 c7                	mov    %eax,%edi
  40724d:	e8 1e df ff ff       	callq  405170 <getsockopt@plt>
  407252:	89 85 5c ff ff ff    	mov    %eax,-0xa4(%rbp)
  407258:	83 bd 5c ff ff ff 00 	cmpl   $0x0,-0xa4(%rbp)
  40725f:	74 07                	je     407268 <_ZL16connect_tinmeoutiP11sockaddr_inj+0x1f8>
  407261:	b8 ff ff ff ff       	mov    $0xffffffff,%eax
  407266:	eb 4c                	jmp    4072b4 <_ZL16connect_tinmeoutiP11sockaddr_inj+0x244>
  407268:	8b 85 44 ff ff ff    	mov    -0xbc(%rbp),%eax
  40726e:	85 c0                	test   %eax,%eax
  407270:	75 0c                	jne    40727e <_ZL16connect_tinmeoutiP11sockaddr_inj+0x20e>
  407272:	c7 85 4c ff ff ff 00 	movl   $0x0,-0xb4(%rbp)
  407279:	00 00 00 
  40727c:	eb 1a                	jmp    407298 <_ZL16connect_tinmeoutiP11sockaddr_inj+0x228>
  40727e:	e8 6d df ff ff       	callq  4051f0 <__errno_location@plt>
  407283:	48 89 c2             	mov    %rax,%rdx
  407286:	8b 85 44 ff ff ff    	mov    -0xbc(%rbp),%eax
  40728c:	89 02                	mov    %eax,(%rdx)
  40728e:	c7 85 4c ff ff ff ff 	movl   $0xffffffff,-0xb4(%rbp)
  407295:	ff ff ff 
  407298:	83 bd 38 ff ff ff 00 	cmpl   $0x0,-0xc8(%rbp)
  40729f:	74 0d                	je     4072ae <_ZL16connect_tinmeoutiP11sockaddr_inj+0x23e>
  4072a1:	8b 85 3c ff ff ff    	mov    -0xc4(%rbp),%eax
  4072a7:	89 c7                	mov    %eax,%edi
  4072a9:	e8 b6 fc ff ff       	callq  406f64 <_ZL19deactivate_nonblocki>
  4072ae:	8b 85 4c ff ff ff    	mov    -0xb4(%rbp),%eax
  4072b4:	48 8b 75 f8          	mov    -0x8(%rbp),%rsi
  4072b8:	64 48 33 34 25 28 00 	xor    %fs:0x28,%rsi
  4072bf:	00 00 
  4072c1:	74 05                	je     4072c8 <_ZL16connect_tinmeoutiP11sockaddr_inj+0x258>
  4072c3:	e8 38 df ff ff       	callq  405200 <__stack_chk_fail@plt>
  4072c8:	c9                   	leaveq 
  4072c9:	c3                   	retq   

00000000004072ca <connect_douyu>:
  4072ca:	55                   	push   %rbp
  4072cb:	48 89 e5             	mov    %rsp,%rbp
  4072ce:	48 83 ec 50          	sub    $0x50,%rsp
  4072d2:	48 89 7d c8          	mov    %rdi,-0x38(%rbp)
  4072d6:	48 89 75 c0          	mov    %rsi,-0x40(%rbp)
  4072da:	89 55 bc             	mov    %edx,-0x44(%rbp)
  4072dd:	64 48 8b 04 25 28 00 	mov    %fs:0x28,%rax
  4072e4:	00 00 
  4072e6:	48 89 45 f8          	mov    %rax,-0x8(%rbp)
  4072ea:	31 c0                	xor    %eax,%eax
  4072ec:	48 83 7d c8 00       	cmpq   $0x0,-0x38(%rbp)
  4072f1:	74 16                	je     407309 <connect_douyu+0x3f>
  4072f3:	48 83 7d c0 00       	cmpq   $0x0,-0x40(%rbp)
  4072f8:	74 0f                	je     407309 <connect_douyu+0x3f>
  4072fa:	83 7d bc 00          	cmpl   $0x0,-0x44(%rbp)
  4072fe:	78 09                	js     407309 <connect_douyu+0x3f>
  407300:	81 7d bc ff ff 00 00 	cmpl   $0xffff,-0x44(%rbp)
  407307:	7e 0c                	jle    407315 <connect_douyu+0x4b>
  407309:	c7 45 d4 b9 0b 00 00 	movl   $0xbb9,-0x2c(%rbp)
  407310:	8b 45 d4             	mov    -0x2c(%rbp),%eax
  407313:	eb 7a                	jmp    40738f <connect_douyu+0xc5>
  407315:	48 8b 45 c8          	mov    -0x38(%rbp),%rax
  407319:	48 89 45 d8          	mov    %rax,-0x28(%rbp)
  40731d:	66 c7 45 e0 02 00    	movw   $0x2,-0x20(%rbp)
  407323:	8b 45 bc             	mov    -0x44(%rbp),%eax
  407326:	0f b7 c0             	movzwl %ax,%eax
  407329:	89 c7                	mov    %eax,%edi
  40732b:	e8 10 dd ff ff       	callq  405040 <htons@plt>
  407330:	66 89 45 e2          	mov    %ax,-0x1e(%rbp)
  407334:	48 8b 45 c0          	mov    -0x40(%rbp),%rax
  407338:	48 89 c7             	mov    %rax,%rdi
  40733b:	e8 40 e0 ff ff       	callq  405380 <inet_addr@plt>
  407340:	89 45 e4             	mov    %eax,-0x1c(%rbp)
  407343:	48 8b 45 d8          	mov    -0x28(%rbp),%rax
  407347:	8b 50 14             	mov    0x14(%rax),%edx
  40734a:	48 8b 45 d8          	mov    -0x28(%rbp),%rax
  40734e:	8b 00                	mov    (%rax),%eax
  407350:	48 8d 4d e0          	lea    -0x20(%rbp),%rcx
  407354:	48 89 ce             	mov    %rcx,%rsi
  407357:	89 c7                	mov    %eax,%edi
  407359:	e8 12 fd ff ff       	callq  407070 <_ZL16connect_tinmeoutiP11sockaddr_inj>
  40735e:	89 45 d4             	mov    %eax,-0x2c(%rbp)
  407361:	83 7d d4 00          	cmpl   $0x0,-0x2c(%rbp)
  407365:	79 25                	jns    40738c <connect_douyu+0xc2>
  407367:	83 7d d4 ff          	cmpl   $0xffffffff,-0x2c(%rbp)
  40736b:	75 15                	jne    407382 <connect_douyu+0xb8>
  40736d:	e8 7e de ff ff       	callq  4051f0 <__errno_location@plt>
  407372:	8b 00                	mov    (%rax),%eax
  407374:	83 f8 6e             	cmp    $0x6e,%eax
  407377:	75 09                	jne    407382 <connect_douyu+0xb8>
  407379:	c7 45 d4 ba 0b 00 00 	movl   $0xbba,-0x2c(%rbp)
  407380:	eb 0a                	jmp    40738c <connect_douyu+0xc2>
  407382:	bf 19 9b 40 00       	mov    $0x409b19,%edi
  407387:	e8 94 dc ff ff       	callq  405020 <puts@plt>
  40738c:	8b 45 d4             	mov    -0x2c(%rbp),%eax
  40738f:	48 8b 4d f8          	mov    -0x8(%rbp),%rcx
  407393:	64 48 33 0c 25 28 00 	xor    %fs:0x28,%rcx
  40739a:	00 00 
  40739c:	74 05                	je     4073a3 <connect_douyu+0xd9>
  40739e:	e8 5d de ff ff       	callq  405200 <__stack_chk_fail@plt>
  4073a3:	c9                   	leaveq 
  4073a4:	c3                   	retq   

00000000004073a5 <_ZL13write_timeoutij>:
  4073a5:	55                   	push   %rbp
  4073a6:	48 89 e5             	mov    %rsp,%rbp
  4073a9:	48 81 ec c0 00 00 00 	sub    $0xc0,%rsp
  4073b0:	89 bd 4c ff ff ff    	mov    %edi,-0xb4(%rbp)
  4073b6:	89 b5 48 ff ff ff    	mov    %esi,-0xb8(%rbp)
  4073bc:	64 48 8b 04 25 28 00 	mov    %fs:0x28,%rax
  4073c3:	00 00 
  4073c5:	48 89 45 f8          	mov    %rax,-0x8(%rbp)
  4073c9:	31 c0                	xor    %eax,%eax
  4073cb:	c7 85 54 ff ff ff 00 	movl   $0x0,-0xac(%rbp)
  4073d2:	00 00 00 
  4073d5:	83 bd 48 ff ff ff 00 	cmpl   $0x0,-0xb8(%rbp)
  4073dc:	0f 84 13 01 00 00    	je     4074f5 <_ZL13write_timeoutij+0x150>
  4073e2:	b9 10 00 00 00       	mov    $0x10,%ecx
  4073e7:	b8 00 00 00 00       	mov    $0x0,%eax
  4073ec:	48 8d 95 70 ff ff ff 	lea    -0x90(%rbp),%rdx
  4073f3:	48 89 d7             	mov    %rdx,%rdi
  4073f6:	fc                   	cld    
  4073f7:	f3 48 ab             	rep stos %rax,%es:(%rdi)
  4073fa:	89 f8                	mov    %edi,%eax
  4073fc:	89 ca                	mov    %ecx,%edx
  4073fe:	89 95 58 ff ff ff    	mov    %edx,-0xa8(%rbp)
  407404:	89 85 5c ff ff ff    	mov    %eax,-0xa4(%rbp)
  40740a:	b8 08 00 00 00       	mov    $0x8,%eax
  40740f:	8d 34 c5 00 00 00 00 	lea    0x0(,%rax,8),%esi
  407416:	8b 85 4c ff ff ff    	mov    -0xb4(%rbp),%eax
  40741c:	99                   	cltd   
  40741d:	f7 fe                	idiv   %esi
  40741f:	89 c6                	mov    %eax,%esi
  407421:	48 63 c6             	movslq %esi,%rax
  407424:	48 8b bc c5 70 ff ff 	mov    -0x90(%rbp,%rax,8),%rdi
  40742b:	ff 
  40742c:	b8 08 00 00 00       	mov    $0x8,%eax
  407431:	8d 0c c5 00 00 00 00 	lea    0x0(,%rax,8),%ecx
  407438:	8b 85 4c ff ff ff    	mov    -0xb4(%rbp),%eax
  40743e:	99                   	cltd   
  40743f:	f7 f9                	idiv   %ecx
  407441:	89 d0                	mov    %edx,%eax
  407443:	ba 01 00 00 00       	mov    $0x1,%edx
  407448:	89 c1                	mov    %eax,%ecx
  40744a:	48 d3 e2             	shl    %cl,%rdx
  40744d:	48 89 d0             	mov    %rdx,%rax
  407450:	48 09 c7             	or     %rax,%rdi
  407453:	48 89 fa             	mov    %rdi,%rdx
  407456:	48 63 c6             	movslq %esi,%rax
  407459:	48 89 94 c5 70 ff ff 	mov    %rdx,-0x90(%rbp,%rax,8)
  407460:	ff 
  407461:	8b 85 48 ff ff ff    	mov    -0xb8(%rbp),%eax
  407467:	48 89 85 60 ff ff ff 	mov    %rax,-0xa0(%rbp)
  40746e:	48 c7 85 68 ff ff ff 	movq   $0x0,-0x98(%rbp)
  407475:	00 00 00 00 
  407479:	8b 85 4c ff ff ff    	mov    -0xb4(%rbp),%eax
  40747f:	8d 78 01             	lea    0x1(%rax),%edi
  407482:	48 8d 95 60 ff ff ff 	lea    -0xa0(%rbp),%rdx
  407489:	48 8d 85 70 ff ff ff 	lea    -0x90(%rbp),%rax
  407490:	49 89 d0             	mov    %rdx,%r8
  407493:	b9 00 00 00 00       	mov    $0x0,%ecx
  407498:	48 89 c2             	mov    %rax,%rdx
  40749b:	be 00 00 00 00       	mov    $0x0,%esi
  4074a0:	e8 ab db ff ff       	callq  405050 <select@plt>
  4074a5:	89 85 54 ff ff ff    	mov    %eax,-0xac(%rbp)
  4074ab:	83 bd 54 ff ff ff 00 	cmpl   $0x0,-0xac(%rbp)
  4074b2:	79 0e                	jns    4074c2 <_ZL13write_timeoutij+0x11d>
  4074b4:	e8 37 dd ff ff       	callq  4051f0 <__errno_location@plt>
  4074b9:	8b 00                	mov    (%rax),%eax
  4074bb:	83 f8 04             	cmp    $0x4,%eax
  4074be:	75 02                	jne    4074c2 <_ZL13write_timeoutij+0x11d>
  4074c0:	eb b7                	jmp    407479 <_ZL13write_timeoutij+0xd4>
  4074c2:	83 bd 54 ff ff ff 00 	cmpl   $0x0,-0xac(%rbp)
  4074c9:	75 17                	jne    4074e2 <_ZL13write_timeoutij+0x13d>
  4074cb:	c7 85 54 ff ff ff ff 	movl   $0xffffffff,-0xac(%rbp)
  4074d2:	ff ff ff 
  4074d5:	e8 16 dd ff ff       	callq  4051f0 <__errno_location@plt>
  4074da:	c7 00 6e 00 00 00    	movl   $0x6e,(%rax)
  4074e0:	eb 13                	jmp    4074f5 <_ZL13write_timeoutij+0x150>
  4074e2:	83 bd 54 ff ff ff 01 	cmpl   $0x1,-0xac(%rbp)
  4074e9:	75 0a                	jne    4074f5 <_ZL13write_timeoutij+0x150>
  4074eb:	c7 85 54 ff ff ff 00 	movl   $0x0,-0xac(%rbp)
  4074f2:	00 00 00 
  4074f5:	8b 85 54 ff ff ff    	mov    -0xac(%rbp),%eax
  4074fb:	48 8b 75 f8          	mov    -0x8(%rbp),%rsi
  4074ff:	64 48 33 34 25 28 00 	xor    %fs:0x28,%rsi
  407506:	00 00 
  407508:	74 05                	je     40750f <_ZL13write_timeoutij+0x16a>
  40750a:	e8 f1 dc ff ff       	callq  405200 <__stack_chk_fail@plt>
  40750f:	c9                   	leaveq 
  407510:	c3                   	retq   

0000000000407511 <_ZL5readniPvm>:
  407511:	55                   	push   %rbp
  407512:	48 89 e5             	mov    %rsp,%rbp
  407515:	48 83 ec 40          	sub    $0x40,%rsp
  407519:	89 7d dc             	mov    %edi,-0x24(%rbp)
  40751c:	48 89 75 d0          	mov    %rsi,-0x30(%rbp)
  407520:	48 89 55 c8          	mov    %rdx,-0x38(%rbp)
  407524:	48 8b 45 c8          	mov    -0x38(%rbp),%rax
  407528:	48 89 45 e8          	mov    %rax,-0x18(%rbp)
  40752c:	48 c7 45 f8 00 00 00 	movq   $0x0,-0x8(%rbp)
  407533:	00 
  407534:	48 8b 45 d0          	mov    -0x30(%rbp),%rax
  407538:	48 89 45 f0          	mov    %rax,-0x10(%rbp)
  40753c:	48 83 7d e8 00       	cmpq   $0x0,-0x18(%rbp)
  407541:	0f 84 88 00 00 00    	je     4075cf <_ZL5readniPvm+0xbe>
  407547:	48 8b 55 e8          	mov    -0x18(%rbp),%rdx
  40754b:	48 8b 4d f0          	mov    -0x10(%rbp),%rcx
  40754f:	8b 45 dc             	mov    -0x24(%rbp),%eax
  407552:	48 89 ce             	mov    %rcx,%rsi
  407555:	89 c7                	mov    %eax,%edi
  407557:	e8 54 db ff ff       	callq  4050b0 <read@plt>
  40755c:	48 89 45 f8          	mov    %rax,-0x8(%rbp)
  407560:	48 8b 45 f8          	mov    -0x8(%rbp),%rax
  407564:	48 c1 e8 3f          	shr    $0x3f,%rax
  407568:	84 c0                	test   %al,%al
  40756a:	74 37                	je     4075a3 <_ZL5readniPvm+0x92>
  40756c:	e8 7f dc ff ff       	callq  4051f0 <__errno_location@plt>
  407571:	8b 00                	mov    (%rax),%eax
  407573:	83 f8 04             	cmp    $0x4,%eax
  407576:	74 51                	je     4075c9 <_ZL5readniPvm+0xb8>
  407578:	e8 73 dc ff ff       	callq  4051f0 <__errno_location@plt>
  40757d:	8b 00                	mov    (%rax),%eax
  40757f:	89 c6                	mov    %eax,%esi
  407581:	bf 2f 9b 40 00       	mov    $0x409b2f,%edi
  407586:	b8 00 00 00 00       	mov    $0x0,%eax
  40758b:	e8 50 da ff ff       	callq  404fe0 <printf@plt>
  407590:	bf 37 9b 40 00       	mov    $0x409b37,%edi
  407595:	e8 56 dd ff ff       	callq  4052f0 <perror@plt>
  40759a:	48 c7 c0 ff ff ff ff 	mov    $0xffffffffffffffff,%rax
  4075a1:	eb 30                	jmp    4075d3 <_ZL5readniPvm+0xc2>
  4075a3:	48 83 7d f8 00       	cmpq   $0x0,-0x8(%rbp)
  4075a8:	75 0a                	jne    4075b4 <_ZL5readniPvm+0xa3>
  4075aa:	48 8b 45 c8          	mov    -0x38(%rbp),%rax
  4075ae:	48 2b 45 e8          	sub    -0x18(%rbp),%rax
  4075b2:	eb 1f                	jmp    4075d3 <_ZL5readniPvm+0xc2>
  4075b4:	48 8b 45 f8          	mov    -0x8(%rbp),%rax
  4075b8:	48 01 45 f0          	add    %rax,-0x10(%rbp)
  4075bc:	48 8b 45 f8          	mov    -0x8(%rbp),%rax
  4075c0:	48 29 45 e8          	sub    %rax,-0x18(%rbp)
  4075c4:	e9 73 ff ff ff       	jmpq   40753c <_ZL5readniPvm+0x2b>
  4075c9:	90                   	nop
  4075ca:	e9 6d ff ff ff       	jmpq   40753c <_ZL5readniPvm+0x2b>
  4075cf:	48 8b 45 c8          	mov    -0x38(%rbp),%rax
  4075d3:	c9                   	leaveq 
  4075d4:	c3                   	retq   

00000000004075d5 <_ZL6writeniPKvm>:
  4075d5:	55                   	push   %rbp
  4075d6:	48 89 e5             	mov    %rsp,%rbp
  4075d9:	48 83 ec 40          	sub    $0x40,%rsp
  4075dd:	89 7d dc             	mov    %edi,-0x24(%rbp)
  4075e0:	48 89 75 d0          	mov    %rsi,-0x30(%rbp)
  4075e4:	48 89 55 c8          	mov    %rdx,-0x38(%rbp)
  4075e8:	48 8b 45 c8          	mov    -0x38(%rbp),%rax
  4075ec:	48 89 45 e8          	mov    %rax,-0x18(%rbp)
  4075f0:	48 8b 45 d0          	mov    -0x30(%rbp),%rax
  4075f4:	48 89 45 f0          	mov    %rax,-0x10(%rbp)
  4075f8:	48 83 7d e8 00       	cmpq   $0x0,-0x18(%rbp)
  4075fd:	74 61                	je     407660 <_ZL6writeniPKvm+0x8b>
  4075ff:	48 8b 55 e8          	mov    -0x18(%rbp),%rdx
  407603:	48 8b 4d f0          	mov    -0x10(%rbp),%rcx
  407607:	8b 45 dc             	mov    -0x24(%rbp),%eax
  40760a:	48 89 ce             	mov    %rcx,%rsi
  40760d:	89 c7                	mov    %eax,%edi
  40760f:	e8 0c dd ff ff       	callq  405320 <write@plt>
  407614:	48 89 45 f8          	mov    %rax,-0x8(%rbp)
  407618:	48 8b 45 f8          	mov    -0x8(%rbp),%rax
  40761c:	48 c1 e8 3f          	shr    $0x3f,%rax
  407620:	84 c0                	test   %al,%al
  407622:	74 1d                	je     407641 <_ZL6writeniPKvm+0x6c>
  407624:	e8 c7 db ff ff       	callq  4051f0 <__errno_location@plt>
  407629:	c7 00 04 00 00 00    	movl   $0x4,(%rax)
  40762f:	b8 01 00 00 00       	mov    $0x1,%eax
  407634:	84 c0                	test   %al,%al
  407636:	75 22                	jne    40765a <_ZL6writeniPKvm+0x85>
  407638:	48 c7 c0 ff ff ff ff 	mov    $0xffffffffffffffff,%rax
  40763f:	eb 23                	jmp    407664 <_ZL6writeniPKvm+0x8f>
  407641:	48 83 7d f8 00       	cmpq   $0x0,-0x8(%rbp)
  407646:	74 15                	je     40765d <_ZL6writeniPKvm+0x88>
  407648:	48 8b 45 f8          	mov    -0x8(%rbp),%rax
  40764c:	48 01 45 f0          	add    %rax,-0x10(%rbp)
  407650:	48 8b 45 f8          	mov    -0x8(%rbp),%rax
  407654:	48 29 45 e8          	sub    %rax,-0x18(%rbp)
  407658:	eb 9e                	jmp    4075f8 <_ZL6writeniPKvm+0x23>
  40765a:	90                   	nop
  40765b:	eb 9b                	jmp    4075f8 <_ZL6writeniPKvm+0x23>
  40765d:	90                   	nop
  40765e:	eb 98                	jmp    4075f8 <_ZL6writeniPKvm+0x23>
  407660:	48 8b 45 c8          	mov    -0x38(%rbp),%rax
  407664:	c9                   	leaveq 
  407665:	c3                   	retq   

0000000000407666 <send_to_douyu>:
  407666:	55                   	push   %rbp
  407667:	48 89 e5             	mov    %rsp,%rbp
  40766a:	48 83 ec 40          	sub    $0x40,%rsp
  40766e:	48 89 7d d8          	mov    %rdi,-0x28(%rbp)
  407672:	48 89 75 d0          	mov    %rsi,-0x30(%rbp)
  407676:	89 55 cc             	mov    %edx,-0x34(%rbp)
  407679:	48 83 7d d8 00       	cmpq   $0x0,-0x28(%rbp)
  40767e:	74 07                	je     407687 <send_to_douyu+0x21>
  407680:	48 83 7d d0 00       	cmpq   $0x0,-0x30(%rbp)
  407685:	75 0f                	jne    407696 <send_to_douyu+0x30>
  407687:	c7 45 ec b9 0b 00 00 	movl   $0xbb9,-0x14(%rbp)
  40768e:	8b 45 ec             	mov    -0x14(%rbp),%eax
  407691:	e9 96 00 00 00       	jmpq   40772c <send_to_douyu+0xc6>
  407696:	48 8b 45 d8          	mov    -0x28(%rbp),%rax
  40769a:	48 89 45 f0          	mov    %rax,-0x10(%rbp)
  40769e:	48 8b 45 f0          	mov    -0x10(%rbp),%rax
  4076a2:	8b 50 18             	mov    0x18(%rax),%edx
  4076a5:	48 8b 45 f0          	mov    -0x10(%rbp),%rax
  4076a9:	8b 00                	mov    (%rax),%eax
  4076ab:	89 d6                	mov    %edx,%esi
  4076ad:	89 c7                	mov    %eax,%edi
  4076af:	e8 f1 fc ff ff       	callq  4073a5 <_ZL13write_timeoutij>
  4076b4:	89 45 ec             	mov    %eax,-0x14(%rbp)
  4076b7:	83 7d ec 00          	cmpl   $0x0,-0x14(%rbp)
  4076bb:	75 37                	jne    4076f4 <send_to_douyu+0x8e>
  4076bd:	48 c7 45 f8 00 00 00 	movq   $0x0,-0x8(%rbp)
  4076c4:	00 
  4076c5:	8b 45 cc             	mov    -0x34(%rbp),%eax
  4076c8:	48 63 d0             	movslq %eax,%rdx
  4076cb:	48 8b 45 f0          	mov    -0x10(%rbp),%rax
  4076cf:	8b 00                	mov    (%rax),%eax
  4076d1:	48 8b 4d d0          	mov    -0x30(%rbp),%rcx
  4076d5:	48 89 ce             	mov    %rcx,%rsi
  4076d8:	89 c7                	mov    %eax,%edi
  4076da:	e8 f6 fe ff ff       	callq  4075d5 <_ZL6writeniPKvm>
  4076df:	48 89 45 f8          	mov    %rax,-0x8(%rbp)
  4076e3:	8b 45 cc             	mov    -0x34(%rbp),%eax
  4076e6:	48 98                	cltq   
  4076e8:	48 3b 45 f8          	cmp    -0x8(%rbp),%rax
  4076ec:	7e 06                	jle    4076f4 <send_to_douyu+0x8e>
  4076ee:	48 8b 45 f8          	mov    -0x8(%rbp),%rax
  4076f2:	eb 38                	jmp    40772c <send_to_douyu+0xc6>
  4076f4:	83 7d ec 00          	cmpl   $0x0,-0x14(%rbp)
  4076f8:	79 2f                	jns    407729 <send_to_douyu+0xc3>
  4076fa:	83 7d ec ff          	cmpl   $0xffffffff,-0x14(%rbp)
  4076fe:	75 15                	jne    407715 <send_to_douyu+0xaf>
  407700:	e8 eb da ff ff       	callq  4051f0 <__errno_location@plt>
  407705:	8b 00                	mov    (%rax),%eax
  407707:	83 f8 6e             	cmp    $0x6e,%eax
  40770a:	75 09                	jne    407715 <send_to_douyu+0xaf>
  40770c:	c7 45 ec ba 0b 00 00 	movl   $0xbba,-0x14(%rbp)
  407713:	eb 14                	jmp    407729 <send_to_douyu+0xc3>
  407715:	8b 45 ec             	mov    -0x14(%rbp),%eax
  407718:	89 c6                	mov    %eax,%esi
  40771a:	bf 3c 9b 40 00       	mov    $0x409b3c,%edi
  40771f:	b8 00 00 00 00       	mov    $0x0,%eax
  407724:	e8 b7 d8 ff ff       	callq  404fe0 <printf@plt>
  407729:	8b 45 ec             	mov    -0x14(%rbp),%eax
  40772c:	c9                   	leaveq 
  40772d:	c3                   	retq   

000000000040772e <_Z12read_timeoutij>:
  40772e:	55                   	push   %rbp
  40772f:	48 89 e5             	mov    %rsp,%rbp
  407732:	53                   	push   %rbx
  407733:	48 81 ec c8 00 00 00 	sub    $0xc8,%rsp
  40773a:	89 bd 3c ff ff ff    	mov    %edi,-0xc4(%rbp)
  407740:	89 b5 38 ff ff ff    	mov    %esi,-0xc8(%rbp)
  407746:	64 48 8b 04 25 28 00 	mov    %fs:0x28,%rax
  40774d:	00 00 
  40774f:	48 89 45 e8          	mov    %rax,-0x18(%rbp)
  407753:	31 c0                	xor    %eax,%eax
  407755:	c7 85 44 ff ff ff 00 	movl   $0x0,-0xbc(%rbp)
  40775c:	00 00 00 
  40775f:	83 bd 38 ff ff ff 00 	cmpl   $0x0,-0xc8(%rbp)
  407766:	0f 84 1e 01 00 00    	je     40788a <_Z12read_timeoutij+0x15c>
  40776c:	b9 10 00 00 00       	mov    $0x10,%ecx
  407771:	b8 00 00 00 00       	mov    $0x0,%eax
  407776:	48 8d 95 60 ff ff ff 	lea    -0xa0(%rbp),%rdx
  40777d:	48 89 d7             	mov    %rdx,%rdi
  407780:	fc                   	cld    
  407781:	f3 48 ab             	rep stos %rax,%es:(%rdi)
  407784:	89 f8                	mov    %edi,%eax
  407786:	89 ca                	mov    %ecx,%edx
  407788:	89 95 48 ff ff ff    	mov    %edx,-0xb8(%rbp)
  40778e:	89 85 4c ff ff ff    	mov    %eax,-0xb4(%rbp)
  407794:	b8 08 00 00 00       	mov    $0x8,%eax
  407799:	8d 1c c5 00 00 00 00 	lea    0x0(,%rax,8),%ebx
  4077a0:	8b 85 3c ff ff ff    	mov    -0xc4(%rbp),%eax
  4077a6:	99                   	cltd   
  4077a7:	f7 fb                	idiv   %ebx
  4077a9:	89 c6                	mov    %eax,%esi
  4077ab:	48 63 c6             	movslq %esi,%rax
  4077ae:	48 8b bc c5 60 ff ff 	mov    -0xa0(%rbp,%rax,8),%rdi
  4077b5:	ff 
  4077b6:	b8 08 00 00 00       	mov    $0x8,%eax
  4077bb:	8d 0c c5 00 00 00 00 	lea    0x0(,%rax,8),%ecx
  4077c2:	8b 85 3c ff ff ff    	mov    -0xc4(%rbp),%eax
  4077c8:	99                   	cltd   
  4077c9:	f7 f9                	idiv   %ecx
  4077cb:	89 d0                	mov    %edx,%eax
  4077cd:	ba 01 00 00 00       	mov    $0x1,%edx
  4077d2:	89 c1                	mov    %eax,%ecx
  4077d4:	48 d3 e2             	shl    %cl,%rdx
  4077d7:	48 89 d0             	mov    %rdx,%rax
  4077da:	48 09 c7             	or     %rax,%rdi
  4077dd:	48 89 fa             	mov    %rdi,%rdx
  4077e0:	48 63 c6             	movslq %esi,%rax
  4077e3:	48 89 94 c5 60 ff ff 	mov    %rdx,-0xa0(%rbp,%rax,8)
  4077ea:	ff 
  4077eb:	8b 85 38 ff ff ff    	mov    -0xc8(%rbp),%eax
  4077f1:	48 89 85 50 ff ff ff 	mov    %rax,-0xb0(%rbp)
  4077f8:	48 c7 85 58 ff ff ff 	movq   $0x0,-0xa8(%rbp)
  4077ff:	00 00 00 00 
  407803:	8b 85 3c ff ff ff    	mov    -0xc4(%rbp),%eax
  407809:	8d 78 01             	lea    0x1(%rax),%edi
  40780c:	48 8d 95 50 ff ff ff 	lea    -0xb0(%rbp),%rdx
  407813:	48 8d 85 60 ff ff ff 	lea    -0xa0(%rbp),%rax
  40781a:	49 89 d0             	mov    %rdx,%r8
  40781d:	b9 00 00 00 00       	mov    $0x0,%ecx
  407822:	ba 00 00 00 00       	mov    $0x0,%edx
  407827:	48 89 c6             	mov    %rax,%rsi
  40782a:	e8 21 d8 ff ff       	callq  405050 <select@plt>
  40782f:	89 85 44 ff ff ff    	mov    %eax,-0xbc(%rbp)
  407835:	8b 85 44 ff ff ff    	mov    -0xbc(%rbp),%eax
  40783b:	f7 d0                	not    %eax
  40783d:	c1 e8 1f             	shr    $0x1f,%eax
  407840:	89 c3                	mov    %eax,%ebx
  407842:	e8 a9 d9 ff ff       	callq  4051f0 <__errno_location@plt>
  407847:	8b 00                	mov    (%rax),%eax
  407849:	83 f8 04             	cmp    $0x4,%eax
  40784c:	0f 95 c0             	setne  %al
  40784f:	09 d8                	or     %ebx,%eax
  407851:	84 c0                	test   %al,%al
  407853:	75 02                	jne    407857 <_Z12read_timeoutij+0x129>
  407855:	eb ac                	jmp    407803 <_Z12read_timeoutij+0xd5>
  407857:	83 bd 44 ff ff ff 00 	cmpl   $0x0,-0xbc(%rbp)
  40785e:	75 17                	jne    407877 <_Z12read_timeoutij+0x149>
  407860:	c7 85 44 ff ff ff ff 	movl   $0xffffffff,-0xbc(%rbp)
  407867:	ff ff ff 
  40786a:	e8 81 d9 ff ff       	callq  4051f0 <__errno_location@plt>
  40786f:	c7 00 6e 00 00 00    	movl   $0x6e,(%rax)
  407875:	eb 13                	jmp    40788a <_Z12read_timeoutij+0x15c>
  407877:	83 bd 44 ff ff ff 01 	cmpl   $0x1,-0xbc(%rbp)
  40787e:	75 0a                	jne    40788a <_Z12read_timeoutij+0x15c>
  407880:	c7 85 44 ff ff ff 00 	movl   $0x0,-0xbc(%rbp)
  407887:	00 00 00 
  40788a:	8b 85 44 ff ff ff    	mov    -0xbc(%rbp),%eax
  407890:	48 8b 5d e8          	mov    -0x18(%rbp),%rbx
  407894:	64 48 33 1c 25 28 00 	xor    %fs:0x28,%rbx
  40789b:	00 00 
  40789d:	74 05                	je     4078a4 <_Z12read_timeoutij+0x176>
  40789f:	e8 5c d9 ff ff       	callq  405200 <__stack_chk_fail@plt>
  4078a4:	48 81 c4 c8 00 00 00 	add    $0xc8,%rsp
  4078ab:	5b                   	pop    %rbx
  4078ac:	5d                   	pop    %rbp
  4078ad:	c3                   	retq   

00000000004078ae <rev_from_douyu>:
  4078ae:	55                   	push   %rbp
  4078af:	48 89 e5             	mov    %rsp,%rbp
  4078b2:	48 83 ec 40          	sub    $0x40,%rsp
  4078b6:	48 89 7d d8          	mov    %rdi,-0x28(%rbp)
  4078ba:	48 89 75 d0          	mov    %rsi,-0x30(%rbp)
  4078be:	48 89 55 c8          	mov    %rdx,-0x38(%rbp)
  4078c2:	64 48 8b 04 25 28 00 	mov    %fs:0x28,%rax
  4078c9:	00 00 
  4078cb:	48 89 45 f8          	mov    %rax,-0x8(%rbp)
  4078cf:	31 c0                	xor    %eax,%eax
  4078d1:	c7 45 e0 00 00 00 00 	movl   $0x0,-0x20(%rbp)
  4078d8:	48 83 7d d8 00       	cmpq   $0x0,-0x28(%rbp)
  4078dd:	74 07                	je     4078e6 <rev_from_douyu+0x38>
  4078df:	48 83 7d d0 00       	cmpq   $0x0,-0x30(%rbp)
  4078e4:	75 0f                	jne    4078f5 <rev_from_douyu+0x47>
  4078e6:	c7 45 e4 b9 0b 00 00 	movl   $0xbb9,-0x1c(%rbp)
  4078ed:	8b 45 e4             	mov    -0x1c(%rbp),%eax
  4078f0:	e9 ac 01 00 00       	jmpq   407aa1 <rev_from_douyu+0x1f3>
  4078f5:	48 8b 45 d8          	mov    -0x28(%rbp),%rax
  4078f9:	48 89 45 e8          	mov    %rax,-0x18(%rbp)
  4078fd:	48 8b 45 e8          	mov    -0x18(%rbp),%rax
  407901:	8b 50 1c             	mov    0x1c(%rax),%edx
  407904:	48 8b 45 e8          	mov    -0x18(%rbp),%rax
  407908:	8b 00                	mov    (%rax),%eax
  40790a:	89 d6                	mov    %edx,%esi
  40790c:	89 c7                	mov    %eax,%edi
  40790e:	e8 1b fe ff ff       	callq  40772e <_Z12read_timeoutij>
  407913:	89 45 e4             	mov    %eax,-0x1c(%rbp)
  407916:	83 7d e4 00          	cmpl   $0x0,-0x1c(%rbp)
  40791a:	0f 85 40 01 00 00    	jne    407a60 <rev_from_douyu+0x1b2>
  407920:	48 c7 45 f0 00 00 00 	movq   $0x0,-0x10(%rbp)
  407927:	00 
  407928:	48 8b 45 c8          	mov    -0x38(%rbp),%rax
  40792c:	8b 00                	mov    (%rax),%eax
  40792e:	48 63 d0             	movslq %eax,%rdx
  407931:	48 8b 45 d0          	mov    -0x30(%rbp),%rax
  407935:	be 00 00 00 00       	mov    $0x0,%esi
  40793a:	48 89 c7             	mov    %rax,%rdi
  40793d:	e8 ae d6 ff ff       	callq  404ff0 <memset@plt>
  407942:	48 8b 45 e8          	mov    -0x18(%rbp),%rax
  407946:	8b 00                	mov    (%rax),%eax
  407948:	48 8d 4d e0          	lea    -0x20(%rbp),%rcx
  40794c:	ba 04 00 00 00       	mov    $0x4,%edx
  407951:	48 89 ce             	mov    %rcx,%rsi
  407954:	89 c7                	mov    %eax,%edi
  407956:	e8 b6 fb ff ff       	callq  407511 <_ZL5readniPvm>
  40795b:	48 89 45 f0          	mov    %rax,-0x10(%rbp)
  40795f:	48 8b 45 e8          	mov    -0x18(%rbp),%rax
  407963:	8b 50 10             	mov    0x10(%rax),%edx
  407966:	8b 45 e0             	mov    -0x20(%rbp),%eax
  407969:	89 c6                	mov    %eax,%esi
  40796b:	bf 58 9b 40 00       	mov    $0x409b58,%edi
  407970:	b8 00 00 00 00       	mov    $0x0,%eax
  407975:	e8 66 d6 ff ff       	callq  404fe0 <printf@plt>
  40797a:	48 83 7d f0 03       	cmpq   $0x3,-0x10(%rbp)
  40797f:	7f 19                	jg     40799a <rev_from_douyu+0xec>
  407981:	bf 78 9b 40 00       	mov    $0x409b78,%edi
  407986:	e8 95 d6 ff ff       	callq  405020 <puts@plt>
  40798b:	c7 45 e4 bb 0b 00 00 	movl   $0xbbb,-0x1c(%rbp)
  407992:	8b 45 e4             	mov    -0x1c(%rbp),%eax
  407995:	e9 07 01 00 00       	jmpq   407aa1 <rev_from_douyu+0x1f3>
  40799a:	48 8b 45 e8          	mov    -0x18(%rbp),%rax
  40799e:	8b 50 10             	mov    0x10(%rax),%edx
  4079a1:	8b 45 e0             	mov    -0x20(%rbp),%eax
  4079a4:	39 c2                	cmp    %eax,%edx
  4079a6:	7d 7f                	jge    407a27 <rev_from_douyu+0x179>
  4079a8:	bf a0 9b 40 00       	mov    $0x409ba0,%edi
  4079ad:	e8 6e d6 ff ff       	callq  405020 <puts@plt>
  4079b2:	48 8b 45 e8          	mov    -0x18(%rbp),%rax
  4079b6:	48 8b 40 08          	mov    0x8(%rax),%rax
  4079ba:	48 89 c7             	mov    %rax,%rdi
  4079bd:	e8 6e d7 ff ff       	callq  405130 <free@plt>
  4079c2:	48 8b 45 e8          	mov    -0x18(%rbp),%rax
  4079c6:	48 c7 40 08 00 00 00 	movq   $0x0,0x8(%rax)
  4079cd:	00 
  4079ce:	8b 45 e0             	mov    -0x20(%rbp),%eax
  4079d1:	48 98                	cltq   
  4079d3:	48 89 c7             	mov    %rax,%rdi
  4079d6:	e8 e5 d6 ff ff       	callq  4050c0 <malloc@plt>
  4079db:	48 89 c2             	mov    %rax,%rdx
  4079de:	48 8b 45 e8          	mov    -0x18(%rbp),%rax
  4079e2:	48 89 50 08          	mov    %rdx,0x8(%rax)
  4079e6:	48 8b 45 e8          	mov    -0x18(%rbp),%rax
  4079ea:	48 8b 40 08          	mov    0x8(%rax),%rax
  4079ee:	48 85 c0             	test   %rax,%rax
  4079f1:	75 0f                	jne    407a02 <rev_from_douyu+0x154>
  4079f3:	c7 45 e4 bc 0b 00 00 	movl   $0xbbc,-0x1c(%rbp)
  4079fa:	8b 45 e4             	mov    -0x1c(%rbp),%eax
  4079fd:	e9 9f 00 00 00       	jmpq   407aa1 <rev_from_douyu+0x1f3>
  407a02:	8b 45 e0             	mov    -0x20(%rbp),%eax
  407a05:	48 63 d0             	movslq %eax,%rdx
  407a08:	48 8b 45 e8          	mov    -0x18(%rbp),%rax
  407a0c:	48 8b 40 08          	mov    0x8(%rax),%rax
  407a10:	be 00 00 00 00       	mov    $0x0,%esi
  407a15:	48 89 c7             	mov    %rax,%rdi
  407a18:	e8 d3 d5 ff ff       	callq  404ff0 <memset@plt>
  407a1d:	8b 55 e0             	mov    -0x20(%rbp),%edx
  407a20:	48 8b 45 e8          	mov    -0x18(%rbp),%rax
  407a24:	89 50 10             	mov    %edx,0x10(%rax)
  407a27:	8b 45 e0             	mov    -0x20(%rbp),%eax
  407a2a:	48 63 d0             	movslq %eax,%rdx
  407a2d:	48 8b 45 e8          	mov    -0x18(%rbp),%rax
  407a31:	8b 00                	mov    (%rax),%eax
  407a33:	48 8b 4d d0          	mov    -0x30(%rbp),%rcx
  407a37:	48 89 ce             	mov    %rcx,%rsi
  407a3a:	89 c7                	mov    %eax,%edi
  407a3c:	e8 d0 fa ff ff       	callq  407511 <_ZL5readniPvm>
  407a41:	48 89 45 f0          	mov    %rax,-0x10(%rbp)
  407a45:	8b 45 e0             	mov    -0x20(%rbp),%eax
  407a48:	48 98                	cltq   
  407a4a:	48 3b 45 f0          	cmp    -0x10(%rbp),%rax
  407a4e:	7e 45                	jle    407a95 <rev_from_douyu+0x1e7>
  407a50:	bf d6 9b 40 00       	mov    $0x409bd6,%edi
  407a55:	e8 c6 d5 ff ff       	callq  405020 <puts@plt>
  407a5a:	48 8b 45 f0          	mov    -0x10(%rbp),%rax
  407a5e:	eb 41                	jmp    407aa1 <rev_from_douyu+0x1f3>
  407a60:	83 7d e4 00          	cmpl   $0x0,-0x1c(%rbp)
  407a64:	79 2f                	jns    407a95 <rev_from_douyu+0x1e7>
  407a66:	83 7d e4 ff          	cmpl   $0xffffffff,-0x1c(%rbp)
  407a6a:	75 15                	jne    407a81 <rev_from_douyu+0x1d3>
  407a6c:	e8 7f d7 ff ff       	callq  4051f0 <__errno_location@plt>
  407a71:	8b 00                	mov    (%rax),%eax
  407a73:	83 f8 6e             	cmp    $0x6e,%eax
  407a76:	75 09                	jne    407a81 <rev_from_douyu+0x1d3>
  407a78:	c7 45 e4 ba 0b 00 00 	movl   $0xbba,-0x1c(%rbp)
  407a7f:	eb 14                	jmp    407a95 <rev_from_douyu+0x1e7>
  407a81:	8b 45 e4             	mov    -0x1c(%rbp),%eax
  407a84:	89 c6                	mov    %eax,%esi
  407a86:	bf 3c 9b 40 00       	mov    $0x409b3c,%edi
  407a8b:	b8 00 00 00 00       	mov    $0x0,%eax
  407a90:	e8 4b d5 ff ff       	callq  404fe0 <printf@plt>
  407a95:	8b 55 e0             	mov    -0x20(%rbp),%edx
  407a98:	48 8b 45 c8          	mov    -0x38(%rbp),%rax
  407a9c:	89 10                	mov    %edx,(%rax)
  407a9e:	8b 45 e4             	mov    -0x1c(%rbp),%eax
  407aa1:	48 8b 4d f8          	mov    -0x8(%rbp),%rcx
  407aa5:	64 48 33 0c 25 28 00 	xor    %fs:0x28,%rcx
  407aac:	00 00 
  407aae:	74 05                	je     407ab5 <rev_from_douyu+0x207>
  407ab0:	e8 4b d7 ff ff       	callq  405200 <__stack_chk_fail@plt>
  407ab5:	c9                   	leaveq 
  407ab6:	c3                   	retq   

0000000000407ab7 <keep_heart>:
  407ab7:	55                   	push   %rbp
  407ab8:	48 89 e5             	mov    %rsp,%rbp
  407abb:	53                   	push   %rbx
  407abc:	48 81 ec 88 00 00 00 	sub    $0x88,%rsp
  407ac3:	48 89 bd 78 ff ff ff 	mov    %rdi,-0x88(%rbp)
  407aca:	48 89 b5 70 ff ff ff 	mov    %rsi,-0x90(%rbp)
  407ad1:	64 48 8b 04 25 28 00 	mov    %fs:0x28,%rax
  407ad8:	00 00 
  407ada:	48 89 45 e8          	mov    %rax,-0x18(%rbp)
  407ade:	31 c0                	xor    %eax,%eax
  407ae0:	48 83 bd 78 ff ff ff 	cmpq   $0x0,-0x88(%rbp)
  407ae7:	00 
  407ae8:	74 0a                	je     407af4 <keep_heart+0x3d>
  407aea:	48 83 bd 70 ff ff ff 	cmpq   $0x0,-0x90(%rbp)
  407af1:	00 
  407af2:	7f 0f                	jg     407b03 <keep_heart+0x4c>
  407af4:	c7 45 8c b9 0b 00 00 	movl   $0xbb9,-0x74(%rbp)
  407afb:	8b 5d 8c             	mov    -0x74(%rbp),%ebx
  407afe:	e9 a5 00 00 00       	jmpq   407ba8 <keep_heart+0xf1>
  407b03:	48 8d 45 b0          	lea    -0x50(%rbp),%rax
  407b07:	48 89 c7             	mov    %rax,%rdi
  407b0a:	e8 87 d9 ff ff       	callq  405496 <_ZN7encoderC1Ev>
  407b0f:	48 8d 45 b0          	lea    -0x50(%rbp),%rax
  407b13:	ba e8 9b 40 00       	mov    $0x409be8,%edx
  407b18:	be f1 9b 40 00       	mov    $0x409bf1,%esi
  407b1d:	48 89 c7             	mov    %rax,%rdi
  407b20:	e8 09 da ff ff       	callq  40552e <_ZN7encoder8add_itemEPKcS1_>
  407b25:	48 8b 85 70 ff ff ff 	mov    -0x90(%rbp),%rax
  407b2c:	89 c2                	mov    %eax,%edx
  407b2e:	48 8d 45 b0          	lea    -0x50(%rbp),%rax
  407b32:	be f6 9b 40 00       	mov    $0x409bf6,%esi
  407b37:	48 89 c7             	mov    %rax,%rdi
  407b3a:	e8 13 db ff ff       	callq  405652 <_ZN7encoder8add_itemEPKci>
  407b3f:	48 8d 45 90          	lea    -0x70(%rbp),%rax
  407b43:	48 8d 55 88          	lea    -0x78(%rbp),%rdx
  407b47:	48 8d 4d b0          	lea    -0x50(%rbp),%rcx
  407b4b:	48 89 ce             	mov    %rcx,%rsi
  407b4e:	48 89 c7             	mov    %rax,%rdi
  407b51:	e8 80 db ff ff       	callq  4056d6 <_ZN7encoder10get_resultB5cxx11EPi>
  407b56:	8b 5d 88             	mov    -0x78(%rbp),%ebx
  407b59:	48 8d 45 90          	lea    -0x70(%rbp),%rax
  407b5d:	48 89 c7             	mov    %rax,%rdi
  407b60:	e8 2b d6 ff ff       	callq  405190 <_ZNKSt7__cxx1112basic_stringIcSt11char_traitsIcESaIcEE4dataEv@plt>
  407b65:	48 89 c1             	mov    %rax,%rcx
  407b68:	48 8b 85 78 ff ff ff 	mov    -0x88(%rbp),%rax
  407b6f:	89 da                	mov    %ebx,%edx
  407b71:	48 89 ce             	mov    %rcx,%rsi
  407b74:	48 89 c7             	mov    %rax,%rdi
  407b77:	e8 ea fa ff ff       	callq  407666 <send_to_douyu>
  407b7c:	89 45 8c             	mov    %eax,-0x74(%rbp)
  407b7f:	81 7d 8c ba 0b 00 00 	cmpl   $0xbba,-0x74(%rbp)
  407b86:	75 05                	jne    407b8d <keep_heart+0xd6>
  407b88:	8b 5d 8c             	mov    -0x74(%rbp),%ebx
  407b8b:	eb 03                	jmp    407b90 <keep_heart+0xd9>
  407b8d:	8b 5d 8c             	mov    -0x74(%rbp),%ebx
  407b90:	48 8d 45 90          	lea    -0x70(%rbp),%rax
  407b94:	48 89 c7             	mov    %rax,%rdi
  407b97:	e8 b4 d5 ff ff       	callq  405150 <_ZNSt7__cxx1112basic_stringIcSt11char_traitsIcESaIcEED1Ev@plt>
  407b9c:	48 8d 45 b0          	lea    -0x50(%rbp),%rax
  407ba0:	48 89 c7             	mov    %rax,%rdi
  407ba3:	e8 3a d9 ff ff       	callq  4054e2 <_ZN7encoderD1Ev>
  407ba8:	89 d8                	mov    %ebx,%eax
  407baa:	48 8b 4d e8          	mov    -0x18(%rbp),%rcx
  407bae:	64 48 33 0c 25 28 00 	xor    %fs:0x28,%rcx
  407bb5:	00 00 
  407bb7:	74 32                	je     407beb <keep_heart+0x134>
  407bb9:	eb 2b                	jmp    407be6 <keep_heart+0x12f>
  407bbb:	48 89 c3             	mov    %rax,%rbx
  407bbe:	48 8d 45 90          	lea    -0x70(%rbp),%rax
  407bc2:	48 89 c7             	mov    %rax,%rdi
  407bc5:	e8 86 d5 ff ff       	callq  405150 <_ZNSt7__cxx1112basic_stringIcSt11char_traitsIcESaIcEED1Ev@plt>
  407bca:	eb 03                	jmp    407bcf <keep_heart+0x118>
  407bcc:	48 89 c3             	mov    %rax,%rbx
  407bcf:	48 8d 45 b0          	lea    -0x50(%rbp),%rax
  407bd3:	48 89 c7             	mov    %rax,%rdi
  407bd6:	e8 07 d9 ff ff       	callq  4054e2 <_ZN7encoderD1Ev>
  407bdb:	48 89 d8             	mov    %rbx,%rax
  407bde:	48 89 c7             	mov    %rax,%rdi
  407be1:	e8 5a d7 ff ff       	callq  405340 <_Unwind_Resume@plt>
  407be6:	e8 15 d6 ff ff       	callq  405200 <__stack_chk_fail@plt>
  407beb:	48 81 c4 88 00 00 00 	add    $0x88,%rsp
  407bf2:	5b                   	pop    %rbx
  407bf3:	5d                   	pop    %rbp
  407bf4:	c3                   	retq   

0000000000407bf5 <login_room>:
  407bf5:	55                   	push   %rbp
  407bf6:	48 89 e5             	mov    %rsp,%rbp
  407bf9:	53                   	push   %rbx
  407bfa:	48 81 ec 28 02 00 00 	sub    $0x228,%rsp
  407c01:	48 89 bd d8 fd ff ff 	mov    %rdi,-0x228(%rbp)
  407c08:	89 b5 d4 fd ff ff    	mov    %esi,-0x22c(%rbp)
  407c0e:	64 48 8b 04 25 28 00 	mov    %fs:0x28,%rax
  407c15:	00 00 
  407c17:	48 89 45 e8          	mov    %rax,-0x18(%rbp)
  407c1b:	31 c0                	xor    %eax,%eax
  407c1d:	48 83 bd d8 fd ff ff 	cmpq   $0x0,-0x228(%rbp)
  407c24:	00 
  407c25:	75 15                	jne    407c3c <login_room+0x47>
  407c27:	c7 85 ec fd ff ff b9 	movl   $0xbb9,-0x214(%rbp)
  407c2e:	0b 00 00 
  407c31:	8b 9d ec fd ff ff    	mov    -0x214(%rbp),%ebx
  407c37:	e9 12 01 00 00       	jmpq   407d4e <login_room+0x159>
  407c3c:	48 8d 85 10 fe ff ff 	lea    -0x1f0(%rbp),%rax
  407c43:	48 89 c7             	mov    %rax,%rdi
  407c46:	e8 4b d8 ff ff       	callq  405496 <_ZN7encoderC1Ev>
  407c4b:	48 8d 85 10 fe ff ff 	lea    -0x1f0(%rbp),%rax
  407c52:	ba fb 9b 40 00       	mov    $0x409bfb,%edx
  407c57:	be f1 9b 40 00       	mov    $0x409bf1,%esi
  407c5c:	48 89 c7             	mov    %rax,%rdi
  407c5f:	e8 ca d8 ff ff       	callq  40552e <_ZN7encoder8add_itemEPKcS1_>
  407c64:	8b 95 d4 fd ff ff    	mov    -0x22c(%rbp),%edx
  407c6a:	48 8d 85 10 fe ff ff 	lea    -0x1f0(%rbp),%rax
  407c71:	be 04 9c 40 00       	mov    $0x409c04,%esi
  407c76:	48 89 c7             	mov    %rax,%rdi
  407c79:	e8 d4 d9 ff ff       	callq  405652 <_ZN7encoder8add_itemEPKci>
  407c7e:	48 8d 85 f0 fd ff ff 	lea    -0x210(%rbp),%rax
  407c85:	48 8d 95 e8 fd ff ff 	lea    -0x218(%rbp),%rdx
  407c8c:	48 8d 8d 10 fe ff ff 	lea    -0x1f0(%rbp),%rcx
  407c93:	48 89 ce             	mov    %rcx,%rsi
  407c96:	48 89 c7             	mov    %rax,%rdi
  407c99:	e8 38 da ff ff       	callq  4056d6 <_ZN7encoder10get_resultB5cxx11EPi>
  407c9e:	48 8d 95 50 fe ff ff 	lea    -0x1b0(%rbp),%rdx
  407ca5:	b8 00 00 00 00       	mov    $0x0,%eax
  407caa:	b9 32 00 00 00       	mov    $0x32,%ecx
  407caf:	48 89 d7             	mov    %rdx,%rdi
  407cb2:	f3 48 ab             	rep stos %rax,%es:(%rdi)
  407cb5:	8b 85 e8 fd ff ff    	mov    -0x218(%rbp),%eax
  407cbb:	48 63 d8             	movslq %eax,%rbx
  407cbe:	48 8d 85 f0 fd ff ff 	lea    -0x210(%rbp),%rax
  407cc5:	48 89 c7             	mov    %rax,%rdi
  407cc8:	e8 c3 d4 ff ff       	callq  405190 <_ZNKSt7__cxx1112basic_stringIcSt11char_traitsIcESaIcEE4dataEv@plt>
  407ccd:	48 89 c1             	mov    %rax,%rcx
  407cd0:	48 8d 85 50 fe ff ff 	lea    -0x1b0(%rbp),%rax
  407cd7:	48 89 da             	mov    %rbx,%rdx
  407cda:	48 89 ce             	mov    %rcx,%rsi
  407cdd:	48 89 c7             	mov    %rax,%rdi
  407ce0:	e8 7b d6 ff ff       	callq  405360 <memcpy@plt>
  407ce5:	8b 9d e8 fd ff ff    	mov    -0x218(%rbp),%ebx
  407ceb:	48 8d 85 f0 fd ff ff 	lea    -0x210(%rbp),%rax
  407cf2:	48 89 c7             	mov    %rax,%rdi
  407cf5:	e8 96 d4 ff ff       	callq  405190 <_ZNKSt7__cxx1112basic_stringIcSt11char_traitsIcESaIcEE4dataEv@plt>
  407cfa:	48 89 c1             	mov    %rax,%rcx
  407cfd:	48 8b 85 d8 fd ff ff 	mov    -0x228(%rbp),%rax
  407d04:	89 da                	mov    %ebx,%edx
  407d06:	48 89 ce             	mov    %rcx,%rsi
  407d09:	48 89 c7             	mov    %rax,%rdi
  407d0c:	e8 55 f9 ff ff       	callq  407666 <send_to_douyu>
  407d11:	89 85 ec fd ff ff    	mov    %eax,-0x214(%rbp)
  407d17:	81 bd ec fd ff ff ba 	cmpl   $0xbba,-0x214(%rbp)
  407d1e:	0b 00 00 
  407d21:	75 08                	jne    407d2b <login_room+0x136>
  407d23:	8b 9d ec fd ff ff    	mov    -0x214(%rbp),%ebx
  407d29:	eb 05                	jmp    407d30 <login_room+0x13b>
  407d2b:	bb 00 00 00 00       	mov    $0x0,%ebx
  407d30:	48 8d 85 f0 fd ff ff 	lea    -0x210(%rbp),%rax
  407d37:	48 89 c7             	mov    %rax,%rdi
  407d3a:	e8 11 d4 ff ff       	callq  405150 <_ZNSt7__cxx1112basic_stringIcSt11char_traitsIcESaIcEED1Ev@plt>
  407d3f:	48 8d 85 10 fe ff ff 	lea    -0x1f0(%rbp),%rax
  407d46:	48 89 c7             	mov    %rax,%rdi
  407d49:	e8 94 d7 ff ff       	callq  4054e2 <_ZN7encoderD1Ev>
  407d4e:	89 d8                	mov    %ebx,%eax
  407d50:	48 8b 75 e8          	mov    -0x18(%rbp),%rsi
  407d54:	64 48 33 34 25 28 00 	xor    %fs:0x28,%rsi
  407d5b:	00 00 
  407d5d:	74 38                	je     407d97 <login_room+0x1a2>
  407d5f:	eb 31                	jmp    407d92 <login_room+0x19d>
  407d61:	48 89 c3             	mov    %rax,%rbx
  407d64:	48 8d 85 f0 fd ff ff 	lea    -0x210(%rbp),%rax
  407d6b:	48 89 c7             	mov    %rax,%rdi
  407d6e:	e8 dd d3 ff ff       	callq  405150 <_ZNSt7__cxx1112basic_stringIcSt11char_traitsIcESaIcEED1Ev@plt>
  407d73:	eb 03                	jmp    407d78 <login_room+0x183>
  407d75:	48 89 c3             	mov    %rax,%rbx
  407d78:	48 8d 85 10 fe ff ff 	lea    -0x1f0(%rbp),%rax
  407d7f:	48 89 c7             	mov    %rax,%rdi
  407d82:	e8 5b d7 ff ff       	callq  4054e2 <_ZN7encoderD1Ev>
  407d87:	48 89 d8             	mov    %rbx,%rax
  407d8a:	48 89 c7             	mov    %rax,%rdi
  407d8d:	e8 ae d5 ff ff       	callq  405340 <_Unwind_Resume@plt>
  407d92:	e8 69 d4 ff ff       	callq  405200 <__stack_chk_fail@plt>
  407d97:	48 81 c4 28 02 00 00 	add    $0x228,%rsp
  407d9e:	5b                   	pop    %rbx
  407d9f:	5d                   	pop    %rbp
  407da0:	c3                   	retq   

0000000000407da1 <join_room>:
  407da1:	55                   	push   %rbp
  407da2:	48 89 e5             	mov    %rsp,%rbp
  407da5:	53                   	push   %rbx
  407da6:	48 81 ec 88 00 00 00 	sub    $0x88,%rsp
  407dad:	48 89 bd 78 ff ff ff 	mov    %rdi,-0x88(%rbp)
  407db4:	89 b5 74 ff ff ff    	mov    %esi,-0x8c(%rbp)
  407dba:	89 95 70 ff ff ff    	mov    %edx,-0x90(%rbp)
  407dc0:	64 48 8b 04 25 28 00 	mov    %fs:0x28,%rax
  407dc7:	00 00 
  407dc9:	48 89 45 e8          	mov    %rax,-0x18(%rbp)
  407dcd:	31 c0                	xor    %eax,%eax
  407dcf:	48 83 bd 78 ff ff ff 	cmpq   $0x0,-0x88(%rbp)
  407dd6:	00 
  407dd7:	74 09                	je     407de2 <join_room+0x41>
  407dd9:	83 bd 74 ff ff ff 00 	cmpl   $0x0,-0x8c(%rbp)
  407de0:	7f 0f                	jg     407df1 <join_room+0x50>
  407de2:	c7 45 8c b9 0b 00 00 	movl   $0xbb9,-0x74(%rbp)
  407de9:	8b 5d 8c             	mov    -0x74(%rbp),%ebx
  407dec:	e9 bb 00 00 00       	jmpq   407eac <join_room+0x10b>
  407df1:	48 8d 45 b0          	lea    -0x50(%rbp),%rax
  407df5:	48 89 c7             	mov    %rax,%rdi
  407df8:	e8 99 d6 ff ff       	callq  405496 <_ZN7encoderC1Ev>
  407dfd:	48 8d 45 b0          	lea    -0x50(%rbp),%rax
  407e01:	ba 0b 9c 40 00       	mov    $0x409c0b,%edx
  407e06:	be f1 9b 40 00       	mov    $0x409bf1,%esi
  407e0b:	48 89 c7             	mov    %rax,%rdi
  407e0e:	e8 1b d7 ff ff       	callq  40552e <_ZN7encoder8add_itemEPKcS1_>
  407e13:	8b 95 74 ff ff ff    	mov    -0x8c(%rbp),%edx
  407e19:	48 8d 45 b0          	lea    -0x50(%rbp),%rax
  407e1d:	be 15 9c 40 00       	mov    $0x409c15,%esi
  407e22:	48 89 c7             	mov    %rax,%rdi
  407e25:	e8 28 d8 ff ff       	callq  405652 <_ZN7encoder8add_itemEPKci>
  407e2a:	8b 95 70 ff ff ff    	mov    -0x90(%rbp),%edx
  407e30:	48 8d 45 b0          	lea    -0x50(%rbp),%rax
  407e34:	be 19 9c 40 00       	mov    $0x409c19,%esi
  407e39:	48 89 c7             	mov    %rax,%rdi
  407e3c:	e8 11 d8 ff ff       	callq  405652 <_ZN7encoder8add_itemEPKci>
  407e41:	48 8d 45 90          	lea    -0x70(%rbp),%rax
  407e45:	48 8d 55 88          	lea    -0x78(%rbp),%rdx
  407e49:	48 8d 4d b0          	lea    -0x50(%rbp),%rcx
  407e4d:	48 89 ce             	mov    %rcx,%rsi
  407e50:	48 89 c7             	mov    %rax,%rdi
  407e53:	e8 7e d8 ff ff       	callq  4056d6 <_ZN7encoder10get_resultB5cxx11EPi>
  407e58:	8b 5d 88             	mov    -0x78(%rbp),%ebx
  407e5b:	48 8d 45 90          	lea    -0x70(%rbp),%rax
  407e5f:	48 89 c7             	mov    %rax,%rdi
  407e62:	e8 29 d3 ff ff       	callq  405190 <_ZNKSt7__cxx1112basic_stringIcSt11char_traitsIcESaIcEE4dataEv@plt>
  407e67:	48 89 c1             	mov    %rax,%rcx
  407e6a:	48 8b 85 78 ff ff ff 	mov    -0x88(%rbp),%rax
  407e71:	89 da                	mov    %ebx,%edx
  407e73:	48 89 ce             	mov    %rcx,%rsi
  407e76:	48 89 c7             	mov    %rax,%rdi
  407e79:	e8 e8 f7 ff ff       	callq  407666 <send_to_douyu>
  407e7e:	89 45 8c             	mov    %eax,-0x74(%rbp)
  407e81:	81 7d 8c ba 0b 00 00 	cmpl   $0xbba,-0x74(%rbp)
  407e88:	75 05                	jne    407e8f <join_room+0xee>
  407e8a:	8b 5d 8c             	mov    -0x74(%rbp),%ebx
  407e8d:	eb 05                	jmp    407e94 <join_room+0xf3>
  407e8f:	bb 00 00 00 00       	mov    $0x0,%ebx
  407e94:	48 8d 45 90          	lea    -0x70(%rbp),%rax
  407e98:	48 89 c7             	mov    %rax,%rdi
  407e9b:	e8 b0 d2 ff ff       	callq  405150 <_ZNSt7__cxx1112basic_stringIcSt11char_traitsIcESaIcEED1Ev@plt>
  407ea0:	48 8d 45 b0          	lea    -0x50(%rbp),%rax
  407ea4:	48 89 c7             	mov    %rax,%rdi
  407ea7:	e8 36 d6 ff ff       	callq  4054e2 <_ZN7encoderD1Ev>
  407eac:	89 d8                	mov    %ebx,%eax
  407eae:	48 8b 4d e8          	mov    -0x18(%rbp),%rcx
  407eb2:	64 48 33 0c 25 28 00 	xor    %fs:0x28,%rcx
  407eb9:	00 00 
  407ebb:	74 32                	je     407eef <join_room+0x14e>
  407ebd:	eb 2b                	jmp    407eea <join_room+0x149>
  407ebf:	48 89 c3             	mov    %rax,%rbx
  407ec2:	48 8d 45 90          	lea    -0x70(%rbp),%rax
  407ec6:	48 89 c7             	mov    %rax,%rdi
  407ec9:	e8 82 d2 ff ff       	callq  405150 <_ZNSt7__cxx1112basic_stringIcSt11char_traitsIcESaIcEED1Ev@plt>
  407ece:	eb 03                	jmp    407ed3 <join_room+0x132>
  407ed0:	48 89 c3             	mov    %rax,%rbx
  407ed3:	48 8d 45 b0          	lea    -0x50(%rbp),%rax
  407ed7:	48 89 c7             	mov    %rax,%rdi
  407eda:	e8 03 d6 ff ff       	callq  4054e2 <_ZN7encoderD1Ev>
  407edf:	48 89 d8             	mov    %rbx,%rax
  407ee2:	48 89 c7             	mov    %rax,%rdi
  407ee5:	e8 56 d4 ff ff       	callq  405340 <_Unwind_Resume@plt>
  407eea:	e8 11 d3 ff ff       	callq  405200 <__stack_chk_fail@plt>
  407eef:	48 81 c4 88 00 00 00 	add    $0x88,%rsp
  407ef6:	5b                   	pop    %rbx
  407ef7:	5d                   	pop    %rbp
  407ef8:	c3                   	retq   

0000000000407ef9 <rev_data>:
  407ef9:	55                   	push   %rbp
  407efa:	48 89 e5             	mov    %rsp,%rbp
  407efd:	53                   	push   %rbx
  407efe:	48 81 ec 88 00 00 00 	sub    $0x88,%rsp
  407f05:	48 89 7d 88          	mov    %rdi,-0x78(%rbp)
  407f09:	48 89 75 80          	mov    %rsi,-0x80(%rbp)
  407f0d:	48 89 95 78 ff ff ff 	mov    %rdx,-0x88(%rbp)
  407f14:	64 48 8b 04 25 28 00 	mov    %fs:0x28,%rax
  407f1b:	00 00 
  407f1d:	48 89 45 e8          	mov    %rax,-0x18(%rbp)
  407f21:	31 c0                	xor    %eax,%eax
  407f23:	c7 45 98 00 00 00 00 	movl   $0x0,-0x68(%rbp)
  407f2a:	c7 45 9c 00 00 00 00 	movl   $0x0,-0x64(%rbp)
  407f31:	48 83 7d 88 00       	cmpq   $0x0,-0x78(%rbp)
  407f36:	75 11                	jne    407f49 <rev_data+0x50>
  407f38:	c7 45 9c b9 0b 00 00 	movl   $0xbb9,-0x64(%rbp)
  407f3f:	bb 03 00 00 00       	mov    $0x3,%ebx
  407f44:	e9 bd 00 00 00       	jmpq   408006 <rev_data+0x10d>
  407f49:	48 8b 45 88          	mov    -0x78(%rbp),%rax
  407f4d:	48 89 45 a0          	mov    %rax,-0x60(%rbp)
  407f51:	48 8b 45 a0          	mov    -0x60(%rbp),%rax
  407f55:	48 8b 40 08          	mov    0x8(%rax),%rax
  407f59:	48 89 45 a8          	mov    %rax,-0x58(%rbp)
  407f5d:	48 8d 55 98          	lea    -0x68(%rbp),%rdx
  407f61:	48 8b 4d a8          	mov    -0x58(%rbp),%rcx
  407f65:	48 8b 45 88          	mov    -0x78(%rbp),%rax
  407f69:	48 89 ce             	mov    %rcx,%rsi
  407f6c:	48 89 c7             	mov    %rax,%rdi
  407f6f:	e8 3a f9 ff ff       	callq  4078ae <rev_from_douyu>
  407f74:	89 45 9c             	mov    %eax,-0x64(%rbp)
  407f77:	81 7d 9c ba 0b 00 00 	cmpl   $0xbba,-0x64(%rbp)
  407f7e:	75 11                	jne    407f91 <rev_data+0x98>
  407f80:	bf 1d 9c 40 00       	mov    $0x409c1d,%edi
  407f85:	e8 96 d0 ff ff       	callq  405020 <puts@plt>
  407f8a:	bb ff ff ff ff       	mov    $0xffffffff,%ebx
  407f8f:	eb 75                	jmp    408006 <rev_data+0x10d>
  407f91:	8b 45 98             	mov    -0x68(%rbp),%eax
  407f94:	3d e8 03 00 00       	cmp    $0x3e8,%eax
  407f99:	7e 14                	jle    407faf <rev_data+0xb6>
  407f9b:	48 8b 85 78 ff ff ff 	mov    -0x88(%rbp),%rax
  407fa2:	c7 00 03 00 00 00    	movl   $0x3,(%rax)
  407fa8:	bb 00 00 00 00       	mov    $0x0,%ebx
  407fad:	eb 57                	jmp    408006 <rev_data+0x10d>
  407faf:	48 8d 45 b0          	lea    -0x50(%rbp),%rax
  407fb3:	48 89 c7             	mov    %rax,%rdi
  407fb6:	e8 db d4 ff ff       	callq  405496 <_ZN7encoderC1Ev>
  407fbb:	48 8b 4d a8          	mov    -0x58(%rbp),%rcx
  407fbf:	48 8d 45 b0          	lea    -0x50(%rbp),%rax
  407fc3:	ba f1 9b 40 00       	mov    $0x409bf1,%edx
  407fc8:	48 89 ce             	mov    %rcx,%rsi
  407fcb:	48 89 c7             	mov    %rax,%rdi
  407fce:	e8 3b db ff ff       	callq  405b0e <_ZN7encoder12get_rev_typeEPhPKc>
  407fd3:	89 c2                	mov    %eax,%edx
  407fd5:	48 8b 85 78 ff ff ff 	mov    -0x88(%rbp),%rax
  407fdc:	89 10                	mov    %edx,(%rax)
  407fde:	48 8d 45 b0          	lea    -0x50(%rbp),%rax
  407fe2:	48 8d 50 20          	lea    0x20(%rax),%rdx
  407fe6:	48 8b 45 80          	mov    -0x80(%rbp),%rax
  407fea:	48 89 d6             	mov    %rdx,%rsi
  407fed:	48 89 c7             	mov    %rax,%rdi
  407ff0:	e8 a1 00 00 00       	callq  408096 <_ZNSt6vectorI9key_valueSaIS0_EEaSERKS2_>
  407ff5:	bb 00 00 00 00       	mov    $0x0,%ebx
  407ffa:	48 8d 45 b0          	lea    -0x50(%rbp),%rax
  407ffe:	48 89 c7             	mov    %rax,%rdi
  408001:	e8 dc d4 ff ff       	callq  4054e2 <_ZN7encoderD1Ev>
  408006:	89 d8                	mov    %ebx,%eax
  408008:	48 8b 4d e8          	mov    -0x18(%rbp),%rcx
  40800c:	64 48 33 0c 25 28 00 	xor    %fs:0x28,%rcx
  408013:	00 00 
  408015:	74 21                	je     408038 <rev_data+0x13f>
  408017:	eb 1a                	jmp    408033 <rev_data+0x13a>
  408019:	48 89 c3             	mov    %rax,%rbx
  40801c:	48 8d 45 b0          	lea    -0x50(%rbp),%rax
  408020:	48 89 c7             	mov    %rax,%rdi
  408023:	e8 ba d4 ff ff       	callq  4054e2 <_ZN7encoderD1Ev>
  408028:	48 89 d8             	mov    %rbx,%rax
  40802b:	48 89 c7             	mov    %rax,%rdi
  40802e:	e8 0d d3 ff ff       	callq  405340 <_Unwind_Resume@plt>
  408033:	e8 c8 d1 ff ff       	callq  405200 <__stack_chk_fail@plt>
  408038:	48 81 c4 88 00 00 00 	add    $0x88,%rsp
  40803f:	5b                   	pop    %rbx
  408040:	5d                   	pop    %rbp
  408041:	c3                   	retq   

0000000000408042 <_Z41__static_initialization_and_destruction_0ii>:
  408042:	55                   	push   %rbp
  408043:	48 89 e5             	mov    %rsp,%rbp
  408046:	48 83 ec 10          	sub    $0x10,%rsp
  40804a:	89 7d fc             	mov    %edi,-0x4(%rbp)
  40804d:	89 75 f8             	mov    %esi,-0x8(%rbp)
  408050:	83 7d fc 01          	cmpl   $0x1,-0x4(%rbp)
  408054:	75 27                	jne    40807d <_Z41__static_initialization_and_destruction_0ii+0x3b>
  408056:	81 7d f8 ff ff 00 00 	cmpl   $0xffff,-0x8(%rbp)
  40805d:	75 1e                	jne    40807d <_Z41__static_initialization_and_destruction_0ii+0x3b>
  40805f:	bf 32 c3 60 00       	mov    $0x60c332,%edi
  408064:	e8 27 d0 ff ff       	callq  405090 <_ZNSt8ios_base4InitC1Ev@plt>
  408069:	ba 00 c2 60 00       	mov    $0x60c200,%edx
  40806e:	be 32 c3 60 00       	mov    $0x60c332,%esi
  408073:	bf f0 50 40 00       	mov    $0x4050f0,%edi
  408078:	e8 63 d0 ff ff       	callq  4050e0 <__cxa_atexit@plt>
  40807d:	90                   	nop
  40807e:	c9                   	leaveq 
  40807f:	c3                   	retq   

0000000000408080 <_GLOBAL__sub_I_douyusockt_init>:
  408080:	55                   	push   %rbp
  408081:	48 89 e5             	mov    %rsp,%rbp
  408084:	be ff ff 00 00       	mov    $0xffff,%esi
  408089:	bf 01 00 00 00       	mov    $0x1,%edi
  40808e:	e8 af ff ff ff       	callq  408042 <_Z41__static_initialization_and_destruction_0ii>
  408093:	5d                   	pop    %rbp
  408094:	c3                   	retq   
  408095:	90                   	nop

0000000000408096 <_ZNSt6vectorI9key_valueSaIS0_EEaSERKS2_>:
  408096:	55                   	push   %rbp
  408097:	48 89 e5             	mov    %rsp,%rbp
  40809a:	41 56                	push   %r14
  40809c:	41 55                	push   %r13
  40809e:	41 54                	push   %r12
  4080a0:	53                   	push   %rbx
  4080a1:	48 83 ec 20          	sub    $0x20,%rsp
  4080a5:	48 89 7d c8          	mov    %rdi,-0x38(%rbp)
  4080a9:	48 89 75 c0          	mov    %rsi,-0x40(%rbp)
  4080ad:	48 8b 45 c0          	mov    -0x40(%rbp),%rax
  4080b1:	48 3b 45 c8          	cmp    -0x38(%rbp),%rax
  4080b5:	0f 84 03 02 00 00    	je     4082be <_ZNSt6vectorI9key_valueSaIS0_EEaSERKS2_+0x228>
  4080bb:	48 8b 45 c0          	mov    -0x40(%rbp),%rax
  4080bf:	48 89 c7             	mov    %rax,%rdi
  4080c2:	e8 cd de ff ff       	callq  405f94 <_ZNKSt6vectorI9key_valueSaIS0_EE4sizeEv>
  4080c7:	48 89 45 d0          	mov    %rax,-0x30(%rbp)
  4080cb:	48 8b 45 c8          	mov    -0x38(%rbp),%rax
  4080cf:	48 89 c7             	mov    %rax,%rdi
  4080d2:	e8 f9 01 00 00       	callq  4082d0 <_ZNKSt6vectorI9key_valueSaIS0_EE8capacityEv>
  4080d7:	48 3b 45 d0          	cmp    -0x30(%rbp),%rax
  4080db:	0f 92 c0             	setb   %al
  4080de:	84 c0                	test   %al,%al
  4080e0:	0f 84 bd 00 00 00    	je     4081a3 <_ZNSt6vectorI9key_valueSaIS0_EEaSERKS2_+0x10d>
  4080e6:	48 8b 45 c0          	mov    -0x40(%rbp),%rax
  4080ea:	48 89 c7             	mov    %rax,%rdi
  4080ed:	e8 58 02 00 00       	callq  40834a <_ZNKSt6vectorI9key_valueSaIS0_EE3endEv>
  4080f2:	48 89 c3             	mov    %rax,%rbx
  4080f5:	48 8b 45 c0          	mov    -0x40(%rbp),%rax
  4080f9:	48 89 c7             	mov    %rax,%rdi
  4080fc:	e8 f5 01 00 00       	callq  4082f6 <_ZNKSt6vectorI9key_valueSaIS0_EE5beginEv>
  408101:	48 89 c2             	mov    %rax,%rdx
  408104:	48 8b 75 d0          	mov    -0x30(%rbp),%rsi
  408108:	48 8b 45 c8          	mov    -0x38(%rbp),%rax
  40810c:	48 89 d9             	mov    %rbx,%rcx
  40810f:	48 89 c7             	mov    %rax,%rdi
  408112:	e8 87 02 00 00       	callq  40839e <_ZNSt6vectorI9key_valueSaIS0_EE20_M_allocate_and_copyIN9__gnu_cxx17__normal_iteratorIPKS0_S2_EEEEPS0_mT_SA_>
  408117:	48 89 45 d8          	mov    %rax,-0x28(%rbp)
  40811b:	48 8b 45 c8          	mov    -0x38(%rbp),%rax
  40811f:	48 89 c7             	mov    %rax,%rdi
  408122:	e8 5d df ff ff       	callq  406084 <_ZNSt12_Vector_baseI9key_valueSaIS0_EE19_M_get_Tp_allocatorEv>
  408127:	48 89 c2             	mov    %rax,%rdx
  40812a:	48 8b 45 c8          	mov    -0x38(%rbp),%rax
  40812e:	48 8b 48 08          	mov    0x8(%rax),%rcx
  408132:	48 8b 45 c8          	mov    -0x38(%rbp),%rax
  408136:	48 8b 00             	mov    (%rax),%rax
  408139:	48 89 ce             	mov    %rcx,%rsi
  40813c:	48 89 c7             	mov    %rax,%rdi
  40813f:	e8 4e df ff ff       	callq  406092 <_ZSt8_DestroyIP9key_valueS0_EvT_S2_RSaIT0_E>
  408144:	48 8b 45 c8          	mov    -0x38(%rbp),%rax
  408148:	48 8b 40 10          	mov    0x10(%rax),%rax
  40814c:	48 89 c2             	mov    %rax,%rdx
  40814f:	48 8b 45 c8          	mov    -0x38(%rbp),%rax
  408153:	48 8b 00             	mov    (%rax),%rax
  408156:	48 29 c2             	sub    %rax,%rdx
  408159:	48 89 d0             	mov    %rdx,%rax
  40815c:	48 c1 f8 06          	sar    $0x6,%rax
  408160:	48 89 c2             	mov    %rax,%rdx
  408163:	48 8b 45 c8          	mov    -0x38(%rbp),%rax
  408167:	48 8b 08             	mov    (%rax),%rcx
  40816a:	48 8b 45 c8          	mov    -0x38(%rbp),%rax
  40816e:	48 89 ce             	mov    %rcx,%rsi
  408171:	48 89 c7             	mov    %rax,%rdi
  408174:	e8 c9 e4 ff ff       	callq  406642 <_ZNSt12_Vector_baseI9key_valueSaIS0_EE13_M_deallocateEPS0_m>
  408179:	48 8b 45 c8          	mov    -0x38(%rbp),%rax
  40817d:	48 8b 55 d8          	mov    -0x28(%rbp),%rdx
  408181:	48 89 10             	mov    %rdx,(%rax)
  408184:	48 8b 45 c8          	mov    -0x38(%rbp),%rax
  408188:	48 8b 00             	mov    (%rax),%rax
  40818b:	48 8b 55 d0          	mov    -0x30(%rbp),%rdx
  40818f:	48 c1 e2 06          	shl    $0x6,%rdx
  408193:	48 01 c2             	add    %rax,%rdx
  408196:	48 8b 45 c8          	mov    -0x38(%rbp),%rax
  40819a:	48 89 50 10          	mov    %rdx,0x10(%rax)
  40819e:	e9 01 01 00 00       	jmpq   4082a4 <_ZNSt6vectorI9key_valueSaIS0_EEaSERKS2_+0x20e>
  4081a3:	48 8b 45 c8          	mov    -0x38(%rbp),%rax
  4081a7:	48 89 c7             	mov    %rax,%rdi
  4081aa:	e8 e5 dd ff ff       	callq  405f94 <_ZNKSt6vectorI9key_valueSaIS0_EE4sizeEv>
  4081af:	48 3b 45 d0          	cmp    -0x30(%rbp),%rax
  4081b3:	0f 93 c0             	setae  %al
  4081b6:	84 c0                	test   %al,%al
  4081b8:	74 69                	je     408223 <_ZNSt6vectorI9key_valueSaIS0_EEaSERKS2_+0x18d>
  4081ba:	48 8b 45 c8          	mov    -0x38(%rbp),%rax
  4081be:	48 89 c7             	mov    %rax,%rdi
  4081c1:	e8 be de ff ff       	callq  406084 <_ZNSt12_Vector_baseI9key_valueSaIS0_EE19_M_get_Tp_allocatorEv>
  4081c6:	49 89 c4             	mov    %rax,%r12
  4081c9:	48 8b 45 c8          	mov    -0x38(%rbp),%rax
  4081cd:	48 89 c7             	mov    %rax,%rdi
  4081d0:	e8 c7 e3 ff ff       	callq  40659c <_ZNSt6vectorI9key_valueSaIS0_EE3endEv>
  4081d5:	48 89 c3             	mov    %rax,%rbx
  4081d8:	48 8b 45 c8          	mov    -0x38(%rbp),%rax
  4081dc:	48 89 c7             	mov    %rax,%rdi
  4081df:	e8 7a e6 ff ff       	callq  40685e <_ZNSt6vectorI9key_valueSaIS0_EE5beginEv>
  4081e4:	49 89 c6             	mov    %rax,%r14
  4081e7:	48 8b 45 c0          	mov    -0x40(%rbp),%rax
  4081eb:	48 89 c7             	mov    %rax,%rdi
  4081ee:	e8 57 01 00 00       	callq  40834a <_ZNKSt6vectorI9key_valueSaIS0_EE3endEv>
  4081f3:	49 89 c5             	mov    %rax,%r13
  4081f6:	48 8b 45 c0          	mov    -0x40(%rbp),%rax
  4081fa:	48 89 c7             	mov    %rax,%rdi
  4081fd:	e8 f4 00 00 00       	callq  4082f6 <_ZNKSt6vectorI9key_valueSaIS0_EE5beginEv>
  408202:	4c 89 f2             	mov    %r14,%rdx
  408205:	4c 89 ee             	mov    %r13,%rsi
  408208:	48 89 c7             	mov    %rax,%rdi
  40820b:	e8 25 02 00 00       	callq  408435 <_ZSt4copyIN9__gnu_cxx17__normal_iteratorIPK9key_valueSt6vectorIS2_SaIS2_EEEENS1_IPS2_S7_EEET0_T_SC_SB_>
  408210:	4c 89 e2             	mov    %r12,%rdx
  408213:	48 89 de             	mov    %rbx,%rsi
  408216:	48 89 c7             	mov    %rax,%rdi
  408219:	e8 63 02 00 00       	callq  408481 <_ZSt8_DestroyIN9__gnu_cxx17__normal_iteratorIP9key_valueSt6vectorIS2_SaIS2_EEEES2_EvT_S8_RSaIT0_E>
  40821e:	e9 81 00 00 00       	jmpq   4082a4 <_ZNSt6vectorI9key_valueSaIS0_EEaSERKS2_+0x20e>
  408223:	48 8b 45 c8          	mov    -0x38(%rbp),%rax
  408227:	48 8b 18             	mov    (%rax),%rbx
  40822a:	48 8b 45 c0          	mov    -0x40(%rbp),%rax
  40822e:	4c 8b 20             	mov    (%rax),%r12
  408231:	48 8b 45 c8          	mov    -0x38(%rbp),%rax
  408235:	48 89 c7             	mov    %rax,%rdi
  408238:	e8 57 dd ff ff       	callq  405f94 <_ZNKSt6vectorI9key_valueSaIS0_EE4sizeEv>
  40823d:	48 c1 e0 06          	shl    $0x6,%rax
  408241:	49 8d 0c 04          	lea    (%r12,%rax,1),%rcx
  408245:	48 8b 45 c0          	mov    -0x40(%rbp),%rax
  408249:	48 8b 00             	mov    (%rax),%rax
  40824c:	48 89 da             	mov    %rbx,%rdx
  40824f:	48 89 ce             	mov    %rcx,%rsi
  408252:	48 89 c7             	mov    %rax,%rdi
  408255:	e8 51 02 00 00       	callq  4084ab <_ZSt4copyIP9key_valueS1_ET0_T_S3_S2_>
  40825a:	48 8b 45 c8          	mov    -0x38(%rbp),%rax
  40825e:	48 89 c7             	mov    %rax,%rdi
  408261:	e8 1e de ff ff       	callq  406084 <_ZNSt12_Vector_baseI9key_valueSaIS0_EE19_M_get_Tp_allocatorEv>
  408266:	49 89 c6             	mov    %rax,%r14
  408269:	48 8b 45 c8          	mov    -0x38(%rbp),%rax
  40826d:	4c 8b 60 08          	mov    0x8(%rax),%r12
  408271:	48 8b 45 c0          	mov    -0x40(%rbp),%rax
  408275:	48 8b 58 08          	mov    0x8(%rax),%rbx
  408279:	48 8b 45 c0          	mov    -0x40(%rbp),%rax
  40827d:	4c 8b 28             	mov    (%rax),%r13
  408280:	48 8b 45 c8          	mov    -0x38(%rbp),%rax
  408284:	48 89 c7             	mov    %rax,%rdi
  408287:	e8 08 dd ff ff       	callq  405f94 <_ZNKSt6vectorI9key_valueSaIS0_EE4sizeEv>
  40828c:	48 c1 e0 06          	shl    $0x6,%rax
  408290:	4c 01 e8             	add    %r13,%rax
  408293:	4c 89 f1             	mov    %r14,%rcx
  408296:	4c 89 e2             	mov    %r12,%rdx
  408299:	48 89 de             	mov    %rbx,%rsi
  40829c:	48 89 c7             	mov    %rax,%rdi
  40829f:	e8 67 e8 ff ff       	callq  406b0b <_ZSt22__uninitialized_copy_aIP9key_valueS1_S0_ET0_T_S3_S2_RSaIT1_E>
  4082a4:	48 8b 45 c8          	mov    -0x38(%rbp),%rax
  4082a8:	48 8b 00             	mov    (%rax),%rax
  4082ab:	48 8b 55 d0          	mov    -0x30(%rbp),%rdx
  4082af:	48 c1 e2 06          	shl    $0x6,%rdx
  4082b3:	48 01 c2             	add    %rax,%rdx
  4082b6:	48 8b 45 c8          	mov    -0x38(%rbp),%rax
  4082ba:	48 89 50 08          	mov    %rdx,0x8(%rax)
  4082be:	48 8b 45 c8          	mov    -0x38(%rbp),%rax
  4082c2:	48 83 c4 20          	add    $0x20,%rsp
  4082c6:	5b                   	pop    %rbx
  4082c7:	41 5c                	pop    %r12
  4082c9:	41 5d                	pop    %r13
  4082cb:	41 5e                	pop    %r14
  4082cd:	5d                   	pop    %rbp
  4082ce:	c3                   	retq   
  4082cf:	90                   	nop

00000000004082d0 <_ZNKSt6vectorI9key_valueSaIS0_EE8capacityEv>:
  4082d0:	55                   	push   %rbp
  4082d1:	48 89 e5             	mov    %rsp,%rbp
  4082d4:	48 89 7d f8          	mov    %rdi,-0x8(%rbp)
  4082d8:	48 8b 45 f8          	mov    -0x8(%rbp),%rax
  4082dc:	48 8b 40 10          	mov    0x10(%rax),%rax
  4082e0:	48 89 c2             	mov    %rax,%rdx
  4082e3:	48 8b 45 f8          	mov    -0x8(%rbp),%rax
  4082e7:	48 8b 00             	mov    (%rax),%rax
  4082ea:	48 29 c2             	sub    %rax,%rdx
  4082ed:	48 89 d0             	mov    %rdx,%rax
  4082f0:	48 c1 f8 06          	sar    $0x6,%rax
  4082f4:	5d                   	pop    %rbp
  4082f5:	c3                   	retq   

00000000004082f6 <_ZNKSt6vectorI9key_valueSaIS0_EE5beginEv>:
  4082f6:	55                   	push   %rbp
  4082f7:	48 89 e5             	mov    %rsp,%rbp
  4082fa:	48 83 ec 30          	sub    $0x30,%rsp
  4082fe:	48 89 7d d8          	mov    %rdi,-0x28(%rbp)
  408302:	64 48 8b 04 25 28 00 	mov    %fs:0x28,%rax
  408309:	00 00 
  40830b:	48 89 45 f8          	mov    %rax,-0x8(%rbp)
  40830f:	31 c0                	xor    %eax,%eax
  408311:	48 8b 45 d8          	mov    -0x28(%rbp),%rax
  408315:	48 8b 00             	mov    (%rax),%rax
  408318:	48 89 45 f0          	mov    %rax,-0x10(%rbp)
  40831c:	48 8d 55 f0          	lea    -0x10(%rbp),%rdx
  408320:	48 8d 45 e0          	lea    -0x20(%rbp),%rax
  408324:	48 89 d6             	mov    %rdx,%rsi
  408327:	48 89 c7             	mov    %rax,%rdi
  40832a:	e8 c9 01 00 00       	callq  4084f8 <_ZN9__gnu_cxx17__normal_iteratorIPK9key_valueSt6vectorIS1_SaIS1_EEEC1ERKS3_>
  40832f:	48 8b 45 e0          	mov    -0x20(%rbp),%rax
  408333:	48 8b 4d f8          	mov    -0x8(%rbp),%rcx
  408337:	64 48 33 0c 25 28 00 	xor    %fs:0x28,%rcx
  40833e:	00 00 
  408340:	74 05                	je     408347 <_ZNKSt6vectorI9key_valueSaIS0_EE5beginEv+0x51>
  408342:	e8 b9 ce ff ff       	callq  405200 <__stack_chk_fail@plt>
  408347:	c9                   	leaveq 
  408348:	c3                   	retq   
  408349:	90                   	nop

000000000040834a <_ZNKSt6vectorI9key_valueSaIS0_EE3endEv>:
  40834a:	55                   	push   %rbp
  40834b:	48 89 e5             	mov    %rsp,%rbp
  40834e:	48 83 ec 30          	sub    $0x30,%rsp
  408352:	48 89 7d d8          	mov    %rdi,-0x28(%rbp)
  408356:	64 48 8b 04 25 28 00 	mov    %fs:0x28,%rax
  40835d:	00 00 
  40835f:	48 89 45 f8          	mov    %rax,-0x8(%rbp)
  408363:	31 c0                	xor    %eax,%eax
  408365:	48 8b 45 d8          	mov    -0x28(%rbp),%rax
  408369:	48 8b 40 08          	mov    0x8(%rax),%rax
  40836d:	48 89 45 f0          	mov    %rax,-0x10(%rbp)
  408371:	48 8d 55 f0          	lea    -0x10(%rbp),%rdx
  408375:	48 8d 45 e0          	lea    -0x20(%rbp),%rax
  408379:	48 89 d6             	mov    %rdx,%rsi
  40837c:	48 89 c7             	mov    %rax,%rdi
  40837f:	e8 74 01 00 00       	callq  4084f8 <_ZN9__gnu_cxx17__normal_iteratorIPK9key_valueSt6vectorIS1_SaIS1_EEEC1ERKS3_>
  408384:	48 8b 45 e0          	mov    -0x20(%rbp),%rax
  408388:	48 8b 4d f8          	mov    -0x8(%rbp),%rcx
  40838c:	64 48 33 0c 25 28 00 	xor    %fs:0x28,%rcx
  408393:	00 00 
  408395:	74 05                	je     40839c <_ZNKSt6vectorI9key_valueSaIS0_EE3endEv+0x52>
  408397:	e8 64 ce ff ff       	callq  405200 <__stack_chk_fail@plt>
  40839c:	c9                   	leaveq 
  40839d:	c3                   	retq   

000000000040839e <_ZNSt6vectorI9key_valueSaIS0_EE20_M_allocate_and_copyIN9__gnu_cxx17__normal_iteratorIPKS0_S2_EEEEPS0_mT_SA_>:
  40839e:	55                   	push   %rbp
  40839f:	48 89 e5             	mov    %rsp,%rbp
  4083a2:	53                   	push   %rbx
  4083a3:	48 83 ec 48          	sub    $0x48,%rsp
  4083a7:	48 89 7d d8          	mov    %rdi,-0x28(%rbp)
  4083ab:	48 89 75 d0          	mov    %rsi,-0x30(%rbp)
  4083af:	48 89 55 c0          	mov    %rdx,-0x40(%rbp)
  4083b3:	48 89 4d b0          	mov    %rcx,-0x50(%rbp)
  4083b7:	48 8b 45 d8          	mov    -0x28(%rbp),%rax
  4083bb:	48 8b 55 d0          	mov    -0x30(%rbp),%rdx
  4083bf:	48 89 d6             	mov    %rdx,%rsi
  4083c2:	48 89 c7             	mov    %rax,%rdi
  4083c5:	e8 20 e5 ff ff       	callq  4068ea <_ZNSt12_Vector_baseI9key_valueSaIS0_EE11_M_allocateEm>
  4083ca:	48 89 45 e8          	mov    %rax,-0x18(%rbp)
  4083ce:	48 8b 45 d8          	mov    -0x28(%rbp),%rax
  4083d2:	48 89 c7             	mov    %rax,%rdi
  4083d5:	e8 aa dc ff ff       	callq  406084 <_ZNSt12_Vector_baseI9key_valueSaIS0_EE19_M_get_Tp_allocatorEv>
  4083da:	48 89 c1             	mov    %rax,%rcx
  4083dd:	48 8b 55 e8          	mov    -0x18(%rbp),%rdx
  4083e1:	48 8b 75 b0          	mov    -0x50(%rbp),%rsi
  4083e5:	48 8b 45 c0          	mov    -0x40(%rbp),%rax
  4083e9:	48 89 c7             	mov    %rax,%rdi
  4083ec:	e8 24 01 00 00       	callq  408515 <_ZSt22__uninitialized_copy_aIN9__gnu_cxx17__normal_iteratorIPK9key_valueSt6vectorIS2_SaIS2_EEEEPS2_S2_ET0_T_SB_SA_RSaIT1_E>
  4083f1:	48 8b 45 e8          	mov    -0x18(%rbp),%rax
  4083f5:	eb 37                	jmp    40842e <_ZNSt6vectorI9key_valueSaIS0_EE20_M_allocate_and_copyIN9__gnu_cxx17__normal_iteratorIPKS0_S2_EEEEPS0_mT_SA_+0x90>
  4083f7:	48 89 c7             	mov    %rax,%rdi
  4083fa:	e8 c1 ce ff ff       	callq  4052c0 <__cxa_begin_catch@plt>
  4083ff:	48 8b 45 d8          	mov    -0x28(%rbp),%rax
  408403:	48 8b 55 d0          	mov    -0x30(%rbp),%rdx
  408407:	48 8b 4d e8          	mov    -0x18(%rbp),%rcx
  40840b:	48 89 ce             	mov    %rcx,%rsi
  40840e:	48 89 c7             	mov    %rax,%rdi
  408411:	e8 2c e2 ff ff       	callq  406642 <_ZNSt12_Vector_baseI9key_valueSaIS0_EE13_M_deallocateEPS0_m>
  408416:	e8 55 cc ff ff       	callq  405070 <__cxa_rethrow@plt>
  40841b:	48 89 c3             	mov    %rax,%rbx
  40841e:	e8 5d ce ff ff       	callq  405280 <__cxa_end_catch@plt>
  408423:	48 89 d8             	mov    %rbx,%rax
  408426:	48 89 c7             	mov    %rax,%rdi
  408429:	e8 12 cf ff ff       	callq  405340 <_Unwind_Resume@plt>
  40842e:	48 83 c4 48          	add    $0x48,%rsp
  408432:	5b                   	pop    %rbx
  408433:	5d                   	pop    %rbp
  408434:	c3                   	retq   

0000000000408435 <_ZSt4copyIN9__gnu_cxx17__normal_iteratorIPK9key_valueSt6vectorIS2_SaIS2_EEEENS1_IPS2_S7_EEET0_T_SC_SB_>:
  408435:	55                   	push   %rbp
  408436:	48 89 e5             	mov    %rsp,%rbp
  408439:	53                   	push   %rbx
  40843a:	48 83 ec 38          	sub    $0x38,%rsp
  40843e:	48 89 7d e0          	mov    %rdi,-0x20(%rbp)
  408442:	48 89 75 d0          	mov    %rsi,-0x30(%rbp)
  408446:	48 89 55 c0          	mov    %rdx,-0x40(%rbp)
  40844a:	48 8b 45 d0          	mov    -0x30(%rbp),%rax
  40844e:	48 89 c7             	mov    %rax,%rdi
  408451:	e8 f0 00 00 00       	callq  408546 <_ZSt12__miter_baseIN9__gnu_cxx17__normal_iteratorIPK9key_valueSt6vectorIS2_SaIS2_EEEEENSt11_Miter_baseIT_E13iterator_typeESA_>
  408456:	48 89 c3             	mov    %rax,%rbx
  408459:	48 8b 45 e0          	mov    -0x20(%rbp),%rax
  40845d:	48 89 c7             	mov    %rax,%rdi
  408460:	e8 e1 00 00 00       	callq  408546 <_ZSt12__miter_baseIN9__gnu_cxx17__normal_iteratorIPK9key_valueSt6vectorIS2_SaIS2_EEEEENSt11_Miter_baseIT_E13iterator_typeESA_>
  408465:	48 89 c1             	mov    %rax,%rcx
  408468:	48 8b 45 c0          	mov    -0x40(%rbp),%rax
  40846c:	48 89 c2             	mov    %rax,%rdx
  40846f:	48 89 de             	mov    %rbx,%rsi
  408472:	48 89 cf             	mov    %rcx,%rdi
  408475:	e8 e6 00 00 00       	callq  408560 <_ZSt14__copy_move_a2ILb0EN9__gnu_cxx17__normal_iteratorIPK9key_valueSt6vectorIS2_SaIS2_EEEENS1_IPS2_S7_EEET1_T0_SC_SB_>
  40847a:	48 83 c4 38          	add    $0x38,%rsp
  40847e:	5b                   	pop    %rbx
  40847f:	5d                   	pop    %rbp
  408480:	c3                   	retq   

0000000000408481 <_ZSt8_DestroyIN9__gnu_cxx17__normal_iteratorIP9key_valueSt6vectorIS2_SaIS2_EEEES2_EvT_S8_RSaIT0_E>:
  408481:	55                   	push   %rbp
  408482:	48 89 e5             	mov    %rsp,%rbp
  408485:	48 83 ec 20          	sub    $0x20,%rsp
  408489:	48 89 7d f0          	mov    %rdi,-0x10(%rbp)
  40848d:	48 89 75 e0          	mov    %rsi,-0x20(%rbp)
  408491:	48 89 55 e8          	mov    %rdx,-0x18(%rbp)
  408495:	48 8b 55 e0          	mov    -0x20(%rbp),%rdx
  408499:	48 8b 45 f0          	mov    -0x10(%rbp),%rax
  40849d:	48 89 d6             	mov    %rdx,%rsi
  4084a0:	48 89 c7             	mov    %rax,%rdi
  4084a3:	e8 4e 01 00 00       	callq  4085f6 <_ZSt8_DestroyIN9__gnu_cxx17__normal_iteratorIP9key_valueSt6vectorIS2_SaIS2_EEEEEvT_S8_>
  4084a8:	90                   	nop
  4084a9:	c9                   	leaveq 
  4084aa:	c3                   	retq   

00000000004084ab <_ZSt4copyIP9key_valueS1_ET0_T_S3_S2_>:
  4084ab:	55                   	push   %rbp
  4084ac:	48 89 e5             	mov    %rsp,%rbp
  4084af:	53                   	push   %rbx
  4084b0:	48 83 ec 28          	sub    $0x28,%rsp
  4084b4:	48 89 7d e8          	mov    %rdi,-0x18(%rbp)
  4084b8:	48 89 75 e0          	mov    %rsi,-0x20(%rbp)
  4084bc:	48 89 55 d8          	mov    %rdx,-0x28(%rbp)
  4084c0:	48 8b 45 e0          	mov    -0x20(%rbp),%rax
  4084c4:	48 89 c7             	mov    %rax,%rdi
  4084c7:	e8 55 e5 ff ff       	callq  406a21 <_ZSt12__miter_baseIP9key_valueENSt11_Miter_baseIT_E13iterator_typeES3_>
  4084cc:	48 89 c3             	mov    %rax,%rbx
  4084cf:	48 8b 45 e8          	mov    -0x18(%rbp),%rax
  4084d3:	48 89 c7             	mov    %rax,%rdi
  4084d6:	e8 46 e5 ff ff       	callq  406a21 <_ZSt12__miter_baseIP9key_valueENSt11_Miter_baseIT_E13iterator_typeES3_>
  4084db:	48 89 c1             	mov    %rax,%rcx
  4084de:	48 8b 45 d8          	mov    -0x28(%rbp),%rax
  4084e2:	48 89 c2             	mov    %rax,%rdx
  4084e5:	48 89 de             	mov    %rbx,%rsi
  4084e8:	48 89 cf             	mov    %rcx,%rdi
  4084eb:	e8 2c 01 00 00       	callq  40861c <_ZSt14__copy_move_a2ILb0EP9key_valueS1_ET1_T0_S3_S2_>
  4084f0:	48 83 c4 28          	add    $0x28,%rsp
  4084f4:	5b                   	pop    %rbx
  4084f5:	5d                   	pop    %rbp
  4084f6:	c3                   	retq   
  4084f7:	90                   	nop

00000000004084f8 <_ZN9__gnu_cxx17__normal_iteratorIPK9key_valueSt6vectorIS1_SaIS1_EEEC1ERKS3_>:
  4084f8:	55                   	push   %rbp
  4084f9:	48 89 e5             	mov    %rsp,%rbp
  4084fc:	48 89 7d f8          	mov    %rdi,-0x8(%rbp)
  408500:	48 89 75 f0          	mov    %rsi,-0x10(%rbp)
  408504:	48 8b 45 f0          	mov    -0x10(%rbp),%rax
  408508:	48 8b 10             	mov    (%rax),%rdx
  40850b:	48 8b 45 f8          	mov    -0x8(%rbp),%rax
  40850f:	48 89 10             	mov    %rdx,(%rax)
  408512:	90                   	nop
  408513:	5d                   	pop    %rbp
  408514:	c3                   	retq   

0000000000408515 <_ZSt22__uninitialized_copy_aIN9__gnu_cxx17__normal_iteratorIPK9key_valueSt6vectorIS2_SaIS2_EEEEPS2_S2_ET0_T_SB_SA_RSaIT1_E>:
  408515:	55                   	push   %rbp
  408516:	48 89 e5             	mov    %rsp,%rbp
  408519:	48 83 ec 20          	sub    $0x20,%rsp
  40851d:	48 89 7d f0          	mov    %rdi,-0x10(%rbp)
  408521:	48 89 75 e0          	mov    %rsi,-0x20(%rbp)
  408525:	48 89 55 e8          	mov    %rdx,-0x18(%rbp)
  408529:	48 89 4d f8          	mov    %rcx,-0x8(%rbp)
  40852d:	48 8b 55 e8          	mov    -0x18(%rbp),%rdx
  408531:	48 8b 4d e0          	mov    -0x20(%rbp),%rcx
  408535:	48 8b 45 f0          	mov    -0x10(%rbp),%rax
  408539:	48 89 ce             	mov    %rcx,%rsi
  40853c:	48 89 c7             	mov    %rax,%rdi
  40853f:	e8 30 01 00 00       	callq  408674 <_ZSt18uninitialized_copyIN9__gnu_cxx17__normal_iteratorIPK9key_valueSt6vectorIS2_SaIS2_EEEEPS2_ET0_T_SB_SA_>
  408544:	c9                   	leaveq 
  408545:	c3                   	retq   

0000000000408546 <_ZSt12__miter_baseIN9__gnu_cxx17__normal_iteratorIPK9key_valueSt6vectorIS2_SaIS2_EEEEENSt11_Miter_baseIT_E13iterator_typeESA_>:
  408546:	55                   	push   %rbp
  408547:	48 89 e5             	mov    %rsp,%rbp
  40854a:	48 83 ec 10          	sub    $0x10,%rsp
  40854e:	48 89 7d f0          	mov    %rdi,-0x10(%rbp)
  408552:	48 8b 45 f0          	mov    -0x10(%rbp),%rax
  408556:	48 89 c7             	mov    %rax,%rdi
  408559:	e8 47 01 00 00       	callq  4086a5 <_ZNSt10_Iter_baseIN9__gnu_cxx17__normal_iteratorIPK9key_valueSt6vectorIS2_SaIS2_EEEELb0EE7_S_baseES8_>
  40855e:	c9                   	leaveq 
  40855f:	c3                   	retq   

0000000000408560 <_ZSt14__copy_move_a2ILb0EN9__gnu_cxx17__normal_iteratorIPK9key_valueSt6vectorIS2_SaIS2_EEEENS1_IPS2_S7_EEET1_T0_SC_SB_>:
  408560:	55                   	push   %rbp
  408561:	48 89 e5             	mov    %rsp,%rbp
  408564:	41 54                	push   %r12
  408566:	53                   	push   %rbx
  408567:	48 83 ec 50          	sub    $0x50,%rsp
  40856b:	48 89 7d c0          	mov    %rdi,-0x40(%rbp)
  40856f:	48 89 75 b0          	mov    %rsi,-0x50(%rbp)
  408573:	48 89 55 a0          	mov    %rdx,-0x60(%rbp)
  408577:	64 48 8b 04 25 28 00 	mov    %fs:0x28,%rax
  40857e:	00 00 
  408580:	48 89 45 e8          	mov    %rax,-0x18(%rbp)
  408584:	31 c0                	xor    %eax,%eax
  408586:	48 8b 45 a0          	mov    -0x60(%rbp),%rax
  40858a:	48 89 c7             	mov    %rax,%rdi
  40858d:	e8 3b 01 00 00       	callq  4086cd <_ZSt12__niter_baseIN9__gnu_cxx17__normal_iteratorIP9key_valueSt6vectorIS2_SaIS2_EEEEENSt11_Niter_baseIT_E13iterator_typeES9_>
  408592:	49 89 c4             	mov    %rax,%r12
  408595:	48 8b 45 b0          	mov    -0x50(%rbp),%rax
  408599:	48 89 c7             	mov    %rax,%rdi
  40859c:	e8 12 01 00 00       	callq  4086b3 <_ZSt12__niter_baseIN9__gnu_cxx17__normal_iteratorIPK9key_valueSt6vectorIS2_SaIS2_EEEEENSt11_Niter_baseIT_E13iterator_typeESA_>
  4085a1:	48 89 c3             	mov    %rax,%rbx
  4085a4:	48 8b 45 c0          	mov    -0x40(%rbp),%rax
  4085a8:	48 89 c7             	mov    %rax,%rdi
  4085ab:	e8 03 01 00 00       	callq  4086b3 <_ZSt12__niter_baseIN9__gnu_cxx17__normal_iteratorIPK9key_valueSt6vectorIS2_SaIS2_EEEEENSt11_Niter_baseIT_E13iterator_typeESA_>
  4085b0:	4c 89 e2             	mov    %r12,%rdx
  4085b3:	48 89 de             	mov    %rbx,%rsi
  4085b6:	48 89 c7             	mov    %rax,%rdi
  4085b9:	e8 29 01 00 00       	callq  4086e7 <_ZSt13__copy_move_aILb0EPK9key_valuePS0_ET1_T0_S5_S4_>
  4085be:	48 89 45 e0          	mov    %rax,-0x20(%rbp)
  4085c2:	48 8d 55 e0          	lea    -0x20(%rbp),%rdx
  4085c6:	48 8d 45 d0          	lea    -0x30(%rbp),%rax
  4085ca:	48 89 d6             	mov    %rdx,%rsi
  4085cd:	48 89 c7             	mov    %rax,%rdi
  4085d0:	e8 a1 e3 ff ff       	callq  406976 <_ZN9__gnu_cxx17__normal_iteratorIP9key_valueSt6vectorIS1_SaIS1_EEEC1ERKS2_>
  4085d5:	48 8b 45 d0          	mov    -0x30(%rbp),%rax
  4085d9:	48 8b 4d e8          	mov    -0x18(%rbp),%rcx
  4085dd:	64 48 33 0c 25 28 00 	xor    %fs:0x28,%rcx
  4085e4:	00 00 
  4085e6:	74 05                	je     4085ed <_ZSt14__copy_move_a2ILb0EN9__gnu_cxx17__normal_iteratorIPK9key_valueSt6vectorIS2_SaIS2_EEEENS1_IPS2_S7_EEET1_T0_SC_SB_+0x8d>
  4085e8:	e8 13 cc ff ff       	callq  405200 <__stack_chk_fail@plt>
  4085ed:	48 83 c4 50          	add    $0x50,%rsp
  4085f1:	5b                   	pop    %rbx
  4085f2:	41 5c                	pop    %r12
  4085f4:	5d                   	pop    %rbp
  4085f5:	c3                   	retq   

00000000004085f6 <_ZSt8_DestroyIN9__gnu_cxx17__normal_iteratorIP9key_valueSt6vectorIS2_SaIS2_EEEEEvT_S8_>:
  4085f6:	55                   	push   %rbp
  4085f7:	48 89 e5             	mov    %rsp,%rbp
  4085fa:	48 83 ec 20          	sub    $0x20,%rsp
  4085fe:	48 89 7d f0          	mov    %rdi,-0x10(%rbp)
  408602:	48 89 75 e0          	mov    %rsi,-0x20(%rbp)
  408606:	48 8b 55 e0          	mov    -0x20(%rbp),%rdx
  40860a:	48 8b 45 f0          	mov    -0x10(%rbp),%rax
  40860e:	48 89 d6             	mov    %rdx,%rsi
  408611:	48 89 c7             	mov    %rax,%rdi
  408614:	e8 ff 00 00 00       	callq  408718 <_ZNSt12_Destroy_auxILb0EE9__destroyIN9__gnu_cxx17__normal_iteratorIP9key_valueSt6vectorIS4_SaIS4_EEEEEEvT_SA_>
  408619:	90                   	nop
  40861a:	c9                   	leaveq 
  40861b:	c3                   	retq   

000000000040861c <_ZSt14__copy_move_a2ILb0EP9key_valueS1_ET1_T0_S3_S2_>:
  40861c:	55                   	push   %rbp
  40861d:	48 89 e5             	mov    %rsp,%rbp
  408620:	41 54                	push   %r12
  408622:	53                   	push   %rbx
  408623:	48 83 ec 20          	sub    $0x20,%rsp
  408627:	48 89 7d e8          	mov    %rdi,-0x18(%rbp)
  40862b:	48 89 75 e0          	mov    %rsi,-0x20(%rbp)
  40862f:	48 89 55 d8          	mov    %rdx,-0x28(%rbp)
  408633:	48 8b 45 d8          	mov    -0x28(%rbp),%rax
  408637:	48 89 c7             	mov    %rax,%rdi
  40863a:	e8 83 e5 ff ff       	callq  406bc2 <_ZSt12__niter_baseIP9key_valueENSt11_Niter_baseIT_E13iterator_typeES3_>
  40863f:	49 89 c4             	mov    %rax,%r12
  408642:	48 8b 45 e0          	mov    -0x20(%rbp),%rax
  408646:	48 89 c7             	mov    %rax,%rdi
  408649:	e8 74 e5 ff ff       	callq  406bc2 <_ZSt12__niter_baseIP9key_valueENSt11_Niter_baseIT_E13iterator_typeES3_>
  40864e:	48 89 c3             	mov    %rax,%rbx
  408651:	48 8b 45 e8          	mov    -0x18(%rbp),%rax
  408655:	48 89 c7             	mov    %rax,%rdi
  408658:	e8 65 e5 ff ff       	callq  406bc2 <_ZSt12__niter_baseIP9key_valueENSt11_Niter_baseIT_E13iterator_typeES3_>
  40865d:	4c 89 e2             	mov    %r12,%rdx
  408660:	48 89 de             	mov    %rbx,%rsi
  408663:	48 89 c7             	mov    %rax,%rdi
  408666:	e8 01 01 00 00       	callq  40876c <_ZSt13__copy_move_aILb0EP9key_valueS1_ET1_T0_S3_S2_>
  40866b:	48 83 c4 20          	add    $0x20,%rsp
  40866f:	5b                   	pop    %rbx
  408670:	41 5c                	pop    %r12
  408672:	5d                   	pop    %rbp
  408673:	c3                   	retq   

0000000000408674 <_ZSt18uninitialized_copyIN9__gnu_cxx17__normal_iteratorIPK9key_valueSt6vectorIS2_SaIS2_EEEEPS2_ET0_T_SB_SA_>:
  408674:	55                   	push   %rbp
  408675:	48 89 e5             	mov    %rsp,%rbp
  408678:	48 83 ec 30          	sub    $0x30,%rsp
  40867c:	48 89 7d e0          	mov    %rdi,-0x20(%rbp)
  408680:	48 89 75 d0          	mov    %rsi,-0x30(%rbp)
  408684:	48 89 55 d8          	mov    %rdx,-0x28(%rbp)
  408688:	c6 45 ff 01          	movb   $0x1,-0x1(%rbp)
  40868c:	48 8b 55 d8          	mov    -0x28(%rbp),%rdx
  408690:	48 8b 4d d0          	mov    -0x30(%rbp),%rcx
  408694:	48 8b 45 e0          	mov    -0x20(%rbp),%rax
  408698:	48 89 ce             	mov    %rcx,%rsi
  40869b:	48 89 c7             	mov    %rax,%rdi
  40869e:	e8 fa 00 00 00       	callq  40879d <_ZNSt20__uninitialized_copyILb0EE13__uninit_copyIN9__gnu_cxx17__normal_iteratorIPK9key_valueSt6vectorIS4_SaIS4_EEEEPS4_EET0_T_SD_SC_>
  4086a3:	c9                   	leaveq 
  4086a4:	c3                   	retq   

00000000004086a5 <_ZNSt10_Iter_baseIN9__gnu_cxx17__normal_iteratorIPK9key_valueSt6vectorIS2_SaIS2_EEEELb0EE7_S_baseES8_>:
  4086a5:	55                   	push   %rbp
  4086a6:	48 89 e5             	mov    %rsp,%rbp
  4086a9:	48 89 7d f0          	mov    %rdi,-0x10(%rbp)
  4086ad:	48 8b 45 f0          	mov    -0x10(%rbp),%rax
  4086b1:	5d                   	pop    %rbp
  4086b2:	c3                   	retq   

00000000004086b3 <_ZSt12__niter_baseIN9__gnu_cxx17__normal_iteratorIPK9key_valueSt6vectorIS2_SaIS2_EEEEENSt11_Niter_baseIT_E13iterator_typeESA_>:
  4086b3:	55                   	push   %rbp
  4086b4:	48 89 e5             	mov    %rsp,%rbp
  4086b7:	48 83 ec 10          	sub    $0x10,%rsp
  4086bb:	48 89 7d f0          	mov    %rdi,-0x10(%rbp)
  4086bf:	48 8b 45 f0          	mov    -0x10(%rbp),%rax
  4086c3:	48 89 c7             	mov    %rax,%rdi
  4086c6:	e8 7f 01 00 00       	callq  40884a <_ZNSt10_Iter_baseIN9__gnu_cxx17__normal_iteratorIPK9key_valueSt6vectorIS2_SaIS2_EEEELb1EE7_S_baseES8_>
  4086cb:	c9                   	leaveq 
  4086cc:	c3                   	retq   

00000000004086cd <_ZSt12__niter_baseIN9__gnu_cxx17__normal_iteratorIP9key_valueSt6vectorIS2_SaIS2_EEEEENSt11_Niter_baseIT_E13iterator_typeES9_>:
  4086cd:	55                   	push   %rbp
  4086ce:	48 89 e5             	mov    %rsp,%rbp
  4086d1:	48 83 ec 10          	sub    $0x10,%rsp
  4086d5:	48 89 7d f0          	mov    %rdi,-0x10(%rbp)
  4086d9:	48 8b 45 f0          	mov    -0x10(%rbp),%rax
  4086dd:	48 89 c7             	mov    %rax,%rdi
  4086e0:	e8 82 01 00 00       	callq  408867 <_ZNSt10_Iter_baseIN9__gnu_cxx17__normal_iteratorIP9key_valueSt6vectorIS2_SaIS2_EEEELb1EE7_S_baseES7_>
  4086e5:	c9                   	leaveq 
  4086e6:	c3                   	retq   

00000000004086e7 <_ZSt13__copy_move_aILb0EPK9key_valuePS0_ET1_T0_S5_S4_>:
  4086e7:	55                   	push   %rbp
  4086e8:	48 89 e5             	mov    %rsp,%rbp
  4086eb:	48 83 ec 30          	sub    $0x30,%rsp
  4086ef:	48 89 7d e8          	mov    %rdi,-0x18(%rbp)
  4086f3:	48 89 75 e0          	mov    %rsi,-0x20(%rbp)
  4086f7:	48 89 55 d8          	mov    %rdx,-0x28(%rbp)
  4086fb:	c6 45 ff 00          	movb   $0x0,-0x1(%rbp)
  4086ff:	48 8b 55 d8          	mov    -0x28(%rbp),%rdx
  408703:	48 8b 4d e0          	mov    -0x20(%rbp),%rcx
  408707:	48 8b 45 e8          	mov    -0x18(%rbp),%rax
  40870b:	48 89 ce             	mov    %rcx,%rsi
  40870e:	48 89 c7             	mov    %rax,%rdi
  408711:	e8 6e 01 00 00       	callq  408884 <_ZNSt11__copy_moveILb0ELb0ESt26random_access_iterator_tagE8__copy_mIPK9key_valuePS3_EET0_T_S8_S7_>
  408716:	c9                   	leaveq 
  408717:	c3                   	retq   

0000000000408718 <_ZNSt12_Destroy_auxILb0EE9__destroyIN9__gnu_cxx17__normal_iteratorIP9key_valueSt6vectorIS4_SaIS4_EEEEEEvT_SA_>:
  408718:	55                   	push   %rbp
  408719:	48 89 e5             	mov    %rsp,%rbp
  40871c:	48 83 ec 20          	sub    $0x20,%rsp
  408720:	48 89 7d f0          	mov    %rdi,-0x10(%rbp)
  408724:	48 89 75 e0          	mov    %rsi,-0x20(%rbp)
  408728:	48 8d 55 e0          	lea    -0x20(%rbp),%rdx
  40872c:	48 8d 45 f0          	lea    -0x10(%rbp),%rax
  408730:	48 89 d6             	mov    %rdx,%rsi
  408733:	48 89 c7             	mov    %rax,%rdi
  408736:	e8 a4 01 00 00       	callq  4088df <_ZN9__gnu_cxxneIP9key_valueSt6vectorIS1_SaIS1_EEEEbRKNS_17__normal_iteratorIT_T0_EESB_>
  40873b:	84 c0                	test   %al,%al
  40873d:	74 2a                	je     408769 <_ZNSt12_Destroy_auxILb0EE9__destroyIN9__gnu_cxx17__normal_iteratorIP9key_valueSt6vectorIS4_SaIS4_EEEEEEvT_SA_+0x51>
  40873f:	48 8d 45 f0          	lea    -0x10(%rbp),%rax
  408743:	48 89 c7             	mov    %rax,%rdi
  408746:	e8 15 e0 ff ff       	callq  406760 <_ZNK9__gnu_cxx17__normal_iteratorIP9key_valueSt6vectorIS1_SaIS1_EEEdeEv>
  40874b:	48 89 c7             	mov    %rax,%rdi
  40874e:	e8 38 e4 ff ff       	callq  406b8b <_ZSt11__addressofI9key_valueEPT_RS1_>
  408753:	48 89 c7             	mov    %rax,%rdi
  408756:	e8 3e e4 ff ff       	callq  406b99 <_ZSt8_DestroyI9key_valueEvPT_>
  40875b:	48 8d 45 f0          	lea    -0x10(%rbp),%rax
  40875f:	48 89 c7             	mov    %rax,%rdi
  408762:	e8 b5 01 00 00       	callq  40891c <_ZN9__gnu_cxx17__normal_iteratorIP9key_valueSt6vectorIS1_SaIS1_EEEppEv>
  408767:	eb bf                	jmp    408728 <_ZNSt12_Destroy_auxILb0EE9__destroyIN9__gnu_cxx17__normal_iteratorIP9key_valueSt6vectorIS4_SaIS4_EEEEEEvT_SA_+0x10>
  408769:	90                   	nop
  40876a:	c9                   	leaveq 
  40876b:	c3                   	retq   

000000000040876c <_ZSt13__copy_move_aILb0EP9key_valueS1_ET1_T0_S3_S2_>:
  40876c:	55                   	push   %rbp
  40876d:	48 89 e5             	mov    %rsp,%rbp
  408770:	48 83 ec 30          	sub    $0x30,%rsp
  408774:	48 89 7d e8          	mov    %rdi,-0x18(%rbp)
  408778:	48 89 75 e0          	mov    %rsi,-0x20(%rbp)
  40877c:	48 89 55 d8          	mov    %rdx,-0x28(%rbp)
  408780:	c6 45 ff 00          	movb   $0x0,-0x1(%rbp)
  408784:	48 8b 55 d8          	mov    -0x28(%rbp),%rdx
  408788:	48 8b 4d e0          	mov    -0x20(%rbp),%rcx
  40878c:	48 8b 45 e8          	mov    -0x18(%rbp),%rax
  408790:	48 89 ce             	mov    %rcx,%rsi
  408793:	48 89 c7             	mov    %rax,%rdi
  408796:	e8 a1 01 00 00       	callq  40893c <_ZNSt11__copy_moveILb0ELb0ESt26random_access_iterator_tagE8__copy_mIP9key_valueS4_EET0_T_S6_S5_>
  40879b:	c9                   	leaveq 
  40879c:	c3                   	retq   

000000000040879d <_ZNSt20__uninitialized_copyILb0EE13__uninit_copyIN9__gnu_cxx17__normal_iteratorIPK9key_valueSt6vectorIS4_SaIS4_EEEEPS4_EET0_T_SD_SC_>:
  40879d:	55                   	push   %rbp
  40879e:	48 89 e5             	mov    %rsp,%rbp
  4087a1:	53                   	push   %rbx
  4087a2:	48 83 ec 38          	sub    $0x38,%rsp
  4087a6:	48 89 7d d0          	mov    %rdi,-0x30(%rbp)
  4087aa:	48 89 75 c0          	mov    %rsi,-0x40(%rbp)
  4087ae:	48 89 55 c8          	mov    %rdx,-0x38(%rbp)
  4087b2:	48 8b 45 c8          	mov    -0x38(%rbp),%rax
  4087b6:	48 89 45 e8          	mov    %rax,-0x18(%rbp)
  4087ba:	48 8d 55 c0          	lea    -0x40(%rbp),%rdx
  4087be:	48 8d 45 d0          	lea    -0x30(%rbp),%rax
  4087c2:	48 89 d6             	mov    %rdx,%rsi
  4087c5:	48 89 c7             	mov    %rax,%rdi
  4087c8:	e8 ca 01 00 00       	callq  408997 <_ZN9__gnu_cxxneIPK9key_valueSt6vectorIS1_SaIS1_EEEEbRKNS_17__normal_iteratorIT_T0_EESC_>
  4087cd:	84 c0                	test   %al,%al
  4087cf:	74 39                	je     40880a <_ZNSt20__uninitialized_copyILb0EE13__uninit_copyIN9__gnu_cxx17__normal_iteratorIPK9key_valueSt6vectorIS4_SaIS4_EEEEPS4_EET0_T_SD_SC_+0x6d>
  4087d1:	48 8d 45 d0          	lea    -0x30(%rbp),%rax
  4087d5:	48 89 c7             	mov    %rax,%rdi
  4087d8:	e8 17 02 00 00       	callq  4089f4 <_ZNK9__gnu_cxx17__normal_iteratorIPK9key_valueSt6vectorIS1_SaIS1_EEEdeEv>
  4087dd:	48 89 c3             	mov    %rax,%rbx
  4087e0:	48 8b 45 e8          	mov    -0x18(%rbp),%rax
  4087e4:	48 89 c7             	mov    %rax,%rdi
  4087e7:	e8 9f e3 ff ff       	callq  406b8b <_ZSt11__addressofI9key_valueEPT_RS1_>
  4087ec:	48 89 de             	mov    %rbx,%rsi
  4087ef:	48 89 c7             	mov    %rax,%rdi
  4087f2:	e8 b2 e5 ff ff       	callq  406da9 <_ZSt10_ConstructI9key_valueS0_EvPT_RKT0_>
  4087f7:	48 8d 45 d0          	lea    -0x30(%rbp),%rax
  4087fb:	48 89 c7             	mov    %rax,%rdi
  4087fe:	e8 d1 01 00 00       	callq  4089d4 <_ZN9__gnu_cxx17__normal_iteratorIPK9key_valueSt6vectorIS1_SaIS1_EEEppEv>
  408803:	48 83 45 e8 40       	addq   $0x40,-0x18(%rbp)
  408808:	eb b0                	jmp    4087ba <_ZNSt20__uninitialized_copyILb0EE13__uninit_copyIN9__gnu_cxx17__normal_iteratorIPK9key_valueSt6vectorIS4_SaIS4_EEEEPS4_EET0_T_SD_SC_+0x1d>
  40880a:	48 8b 45 e8          	mov    -0x18(%rbp),%rax
  40880e:	eb 33                	jmp    408843 <_ZNSt20__uninitialized_copyILb0EE13__uninit_copyIN9__gnu_cxx17__normal_iteratorIPK9key_valueSt6vectorIS4_SaIS4_EEEEPS4_EET0_T_SD_SC_+0xa6>
  408810:	48 89 c7             	mov    %rax,%rdi
  408813:	e8 a8 ca ff ff       	callq  4052c0 <__cxa_begin_catch@plt>
  408818:	48 8b 55 e8          	mov    -0x18(%rbp),%rdx
  40881c:	48 8b 45 c8          	mov    -0x38(%rbp),%rax
  408820:	48 89 d6             	mov    %rdx,%rsi
  408823:	48 89 c7             	mov    %rax,%rdi
  408826:	e8 4c de ff ff       	callq  406677 <_ZSt8_DestroyIP9key_valueEvT_S2_>
  40882b:	e8 40 c8 ff ff       	callq  405070 <__cxa_rethrow@plt>
  408830:	48 89 c3             	mov    %rax,%rbx
  408833:	e8 48 ca ff ff       	callq  405280 <__cxa_end_catch@plt>
  408838:	48 89 d8             	mov    %rbx,%rax
  40883b:	48 89 c7             	mov    %rax,%rdi
  40883e:	e8 fd ca ff ff       	callq  405340 <_Unwind_Resume@plt>
  408843:	48 83 c4 38          	add    $0x38,%rsp
  408847:	5b                   	pop    %rbx
  408848:	5d                   	pop    %rbp
  408849:	c3                   	retq   

000000000040884a <_ZNSt10_Iter_baseIN9__gnu_cxx17__normal_iteratorIPK9key_valueSt6vectorIS2_SaIS2_EEEELb1EE7_S_baseES8_>:
  40884a:	55                   	push   %rbp
  40884b:	48 89 e5             	mov    %rsp,%rbp
  40884e:	48 83 ec 10          	sub    $0x10,%rsp
  408852:	48 89 7d f0          	mov    %rdi,-0x10(%rbp)
  408856:	48 8d 45 f0          	lea    -0x10(%rbp),%rax
  40885a:	48 89 c7             	mov    %rax,%rdi
  40885d:	e8 a4 01 00 00       	callq  408a06 <_ZNK9__gnu_cxx17__normal_iteratorIPK9key_valueSt6vectorIS1_SaIS1_EEE4baseEv>
  408862:	48 8b 00             	mov    (%rax),%rax
  408865:	c9                   	leaveq 
  408866:	c3                   	retq   

0000000000408867 <_ZNSt10_Iter_baseIN9__gnu_cxx17__normal_iteratorIP9key_valueSt6vectorIS2_SaIS2_EEEELb1EE7_S_baseES7_>:
  408867:	55                   	push   %rbp
  408868:	48 89 e5             	mov    %rsp,%rbp
  40886b:	48 83 ec 10          	sub    $0x10,%rsp
  40886f:	48 89 7d f0          	mov    %rdi,-0x10(%rbp)
  408873:	48 8d 45 f0          	lea    -0x10(%rbp),%rax
  408877:	48 89 c7             	mov    %rax,%rdi
  40887a:	e8 87 de ff ff       	callq  406706 <_ZNK9__gnu_cxx17__normal_iteratorIP9key_valueSt6vectorIS1_SaIS1_EEE4baseEv>
  40887f:	48 8b 00             	mov    (%rax),%rax
  408882:	c9                   	leaveq 
  408883:	c3                   	retq   

0000000000408884 <_ZNSt11__copy_moveILb0ELb0ESt26random_access_iterator_tagE8__copy_mIPK9key_valuePS3_EET0_T_S8_S7_>:
  408884:	55                   	push   %rbp
  408885:	48 89 e5             	mov    %rsp,%rbp
  408888:	48 83 ec 30          	sub    $0x30,%rsp
  40888c:	48 89 7d e8          	mov    %rdi,-0x18(%rbp)
  408890:	48 89 75 e0          	mov    %rsi,-0x20(%rbp)
  408894:	48 89 55 d8          	mov    %rdx,-0x28(%rbp)
  408898:	48 8b 55 e0          	mov    -0x20(%rbp),%rdx
  40889c:	48 8b 45 e8          	mov    -0x18(%rbp),%rax
  4088a0:	48 29 c2             	sub    %rax,%rdx
  4088a3:	48 89 d0             	mov    %rdx,%rax
  4088a6:	48 c1 f8 06          	sar    $0x6,%rax
  4088aa:	48 89 45 f8          	mov    %rax,-0x8(%rbp)
  4088ae:	48 83 7d f8 00       	cmpq   $0x0,-0x8(%rbp)
  4088b3:	7e 24                	jle    4088d9 <_ZNSt11__copy_moveILb0ELb0ESt26random_access_iterator_tagE8__copy_mIPK9key_valuePS3_EET0_T_S8_S7_+0x55>
  4088b5:	48 8b 55 e8          	mov    -0x18(%rbp),%rdx
  4088b9:	48 8b 45 d8          	mov    -0x28(%rbp),%rax
  4088bd:	48 89 d6             	mov    %rdx,%rsi
  4088c0:	48 89 c7             	mov    %rax,%rdi
  4088c3:	e8 ca d8 ff ff       	callq  406192 <_ZN9key_valueaSERKS_>
  4088c8:	48 83 45 e8 40       	addq   $0x40,-0x18(%rbp)
  4088cd:	48 83 45 d8 40       	addq   $0x40,-0x28(%rbp)
  4088d2:	48 83 6d f8 01       	subq   $0x1,-0x8(%rbp)
  4088d7:	eb d5                	jmp    4088ae <_ZNSt11__copy_moveILb0ELb0ESt26random_access_iterator_tagE8__copy_mIPK9key_valuePS3_EET0_T_S8_S7_+0x2a>
  4088d9:	48 8b 45 d8          	mov    -0x28(%rbp),%rax
  4088dd:	c9                   	leaveq 
  4088de:	c3                   	retq   

00000000004088df <_ZN9__gnu_cxxneIP9key_valueSt6vectorIS1_SaIS1_EEEEbRKNS_17__normal_iteratorIT_T0_EESB_>:
  4088df:	55                   	push   %rbp
  4088e0:	48 89 e5             	mov    %rsp,%rbp
  4088e3:	53                   	push   %rbx
  4088e4:	48 83 ec 18          	sub    $0x18,%rsp
  4088e8:	48 89 7d e8          	mov    %rdi,-0x18(%rbp)
  4088ec:	48 89 75 e0          	mov    %rsi,-0x20(%rbp)
  4088f0:	48 8b 45 e8          	mov    -0x18(%rbp),%rax
  4088f4:	48 89 c7             	mov    %rax,%rdi
  4088f7:	e8 0a de ff ff       	callq  406706 <_ZNK9__gnu_cxx17__normal_iteratorIP9key_valueSt6vectorIS1_SaIS1_EEE4baseEv>
  4088fc:	48 8b 18             	mov    (%rax),%rbx
  4088ff:	48 8b 45 e0          	mov    -0x20(%rbp),%rax
  408903:	48 89 c7             	mov    %rax,%rdi
  408906:	e8 fb dd ff ff       	callq  406706 <_ZNK9__gnu_cxx17__normal_iteratorIP9key_valueSt6vectorIS1_SaIS1_EEE4baseEv>
  40890b:	48 8b 00             	mov    (%rax),%rax
  40890e:	48 39 c3             	cmp    %rax,%rbx
  408911:	0f 95 c0             	setne  %al
  408914:	48 83 c4 18          	add    $0x18,%rsp
  408918:	5b                   	pop    %rbx
  408919:	5d                   	pop    %rbp
  40891a:	c3                   	retq   
  40891b:	90                   	nop

000000000040891c <_ZN9__gnu_cxx17__normal_iteratorIP9key_valueSt6vectorIS1_SaIS1_EEEppEv>:
  40891c:	55                   	push   %rbp
  40891d:	48 89 e5             	mov    %rsp,%rbp
  408920:	48 89 7d f8          	mov    %rdi,-0x8(%rbp)
  408924:	48 8b 45 f8          	mov    -0x8(%rbp),%rax
  408928:	48 8b 00             	mov    (%rax),%rax
  40892b:	48 8d 50 40          	lea    0x40(%rax),%rdx
  40892f:	48 8b 45 f8          	mov    -0x8(%rbp),%rax
  408933:	48 89 10             	mov    %rdx,(%rax)
  408936:	48 8b 45 f8          	mov    -0x8(%rbp),%rax
  40893a:	5d                   	pop    %rbp
  40893b:	c3                   	retq   

000000000040893c <_ZNSt11__copy_moveILb0ELb0ESt26random_access_iterator_tagE8__copy_mIP9key_valueS4_EET0_T_S6_S5_>:
  40893c:	55                   	push   %rbp
  40893d:	48 89 e5             	mov    %rsp,%rbp
  408940:	48 83 ec 30          	sub    $0x30,%rsp
  408944:	48 89 7d e8          	mov    %rdi,-0x18(%rbp)
  408948:	48 89 75 e0          	mov    %rsi,-0x20(%rbp)
  40894c:	48 89 55 d8          	mov    %rdx,-0x28(%rbp)
  408950:	48 8b 55 e0          	mov    -0x20(%rbp),%rdx
  408954:	48 8b 45 e8          	mov    -0x18(%rbp),%rax
  408958:	48 29 c2             	sub    %rax,%rdx
  40895b:	48 89 d0             	mov    %rdx,%rax
  40895e:	48 c1 f8 06          	sar    $0x6,%rax
  408962:	48 89 45 f8          	mov    %rax,-0x8(%rbp)
  408966:	48 83 7d f8 00       	cmpq   $0x0,-0x8(%rbp)
  40896b:	7e 24                	jle    408991 <_ZNSt11__copy_moveILb0ELb0ESt26random_access_iterator_tagE8__copy_mIP9key_valueS4_EET0_T_S6_S5_+0x55>
  40896d:	48 8b 55 e8          	mov    -0x18(%rbp),%rdx
  408971:	48 8b 45 d8          	mov    -0x28(%rbp),%rax
  408975:	48 89 d6             	mov    %rdx,%rsi
  408978:	48 89 c7             	mov    %rax,%rdi
  40897b:	e8 12 d8 ff ff       	callq  406192 <_ZN9key_valueaSERKS_>
  408980:	48 83 45 e8 40       	addq   $0x40,-0x18(%rbp)
  408985:	48 83 45 d8 40       	addq   $0x40,-0x28(%rbp)
  40898a:	48 83 6d f8 01       	subq   $0x1,-0x8(%rbp)
  40898f:	eb d5                	jmp    408966 <_ZNSt11__copy_moveILb0ELb0ESt26random_access_iterator_tagE8__copy_mIP9key_valueS4_EET0_T_S6_S5_+0x2a>
  408991:	48 8b 45 d8          	mov    -0x28(%rbp),%rax
  408995:	c9                   	leaveq 
  408996:	c3                   	retq   

0000000000408997 <_ZN9__gnu_cxxneIPK9key_valueSt6vectorIS1_SaIS1_EEEEbRKNS_17__normal_iteratorIT_T0_EESC_>:
  408997:	55                   	push   %rbp
  408998:	48 89 e5             	mov    %rsp,%rbp
  40899b:	53                   	push   %rbx
  40899c:	48 83 ec 18          	sub    $0x18,%rsp
  4089a0:	48 89 7d e8          	mov    %rdi,-0x18(%rbp)
  4089a4:	48 89 75 e0          	mov    %rsi,-0x20(%rbp)
  4089a8:	48 8b 45 e8          	mov    -0x18(%rbp),%rax
  4089ac:	48 89 c7             	mov    %rax,%rdi
  4089af:	e8 52 00 00 00       	callq  408a06 <_ZNK9__gnu_cxx17__normal_iteratorIPK9key_valueSt6vectorIS1_SaIS1_EEE4baseEv>
  4089b4:	48 8b 18             	mov    (%rax),%rbx
  4089b7:	48 8b 45 e0          	mov    -0x20(%rbp),%rax
  4089bb:	48 89 c7             	mov    %rax,%rdi
  4089be:	e8 43 00 00 00       	callq  408a06 <_ZNK9__gnu_cxx17__normal_iteratorIPK9key_valueSt6vectorIS1_SaIS1_EEE4baseEv>
  4089c3:	48 8b 00             	mov    (%rax),%rax
  4089c6:	48 39 c3             	cmp    %rax,%rbx
  4089c9:	0f 95 c0             	setne  %al
  4089cc:	48 83 c4 18          	add    $0x18,%rsp
  4089d0:	5b                   	pop    %rbx
  4089d1:	5d                   	pop    %rbp
  4089d2:	c3                   	retq   
  4089d3:	90                   	nop

